(dp0
V31F-5-1
p1
(dp2
S'content'
p3
Vimages/gov.ca.bsc.2010.02.2_543_01.jpg
p4
sS'name'
p5
VTYPICAL PIER AND WHARF CONFIGURATIONS
p6
ssV31F-7-4
p7
(dp8
g3
Vimages/gov.ca.bsc.2010.02.2_555_04.jpg
p9
sg5
VINFLUENCE OF PILE/SOIL STIFFNESS RATIO ON PLASTIC HINGE LENGTH (after Fig. 5.30 of [7.1])
p10
ssV2113A.16
p11
(dp12
g3
Vimages/gov.ca.bsc.2010.02.2_315_01.jpg
p13
sg5
VFLUE SIZES FOR MASONRY CHIMNEYS
p14
ssV31F-5-4
p15
(dp16
g3
Vimages/gov.ca.bsc.2010.02.2_545_01.jpg
p17
sg5
VPASSING VESSEL
p18
ssV31F-4-8
p19
(dp20
g3
Vimages/gov.ca.bsc.2010.02.2_541_01.jpg
p21
sg5
VP-EFFECT
p22
ssV31F-7-2
p23
(dp24
g3
Vimages/gov.ca.bsc.2010.02.2_554_02.jpg
p25
sg5
VSTRESS-STRAIN CURVE FOR MILD REINFORCING STEEL OR STRUCTURAL STEEL [7.1]
p26
ssV31F-7-1
p27
(dp28
g3
Vimages/gov.ca.bsc.2010.02.2_554_01.jpg
p29
sg5
VSTRESS-STRAIN CURVES FOR CONFINED AND UNCONFINED CONCRETE [7.1]
p30
ssV31F-4-7
p31
(dp32
g3
Vimages/gov.ca.bsc.2010.02.2_540_03.jpg
p33
sg5
VPLAN VEW OF WHARF SEGMENT UNDER XAND V SEISMIC EXCITATIONS [4.3]
p34
ssV2603.8
p35
(dp36
g3
Vimages/gov.ca.bsc.2010.02.2_434_01.jpg
p37
sg5
VTERMITE INFESTATION PROBABILITY MAP
p38
ssV2113A.19
p39
(dp40
g3
Vimages/gov.ca.bsc.2010.02.2_316_01.jpg
p41
sg5
VILLUSTRATION OF EXCEPTION THREE CHIMNEY CLEARANCE PROVISION
p42
ssV31F-7-8
p43
(dp44
g3
Vimages/gov.ca.bsc.2010.02.2_558_02.jpg
p45
sg5
VAXIAL FORCE SHEAR MECHANISM
p46
ssV31F-4-2
p47
(dp48
g3
Vimages/gov.ca.bsc.2010.02.2_537_01.jpg
p49
sg5
VSIMPLIFIED SINGLE PILE MODEL OF A TIMBER PILE SUPPORTED STRUCTURE
p50
ssVK103.1
p51
(dp52
g3
Vimages/gov.ca.bsc.2010.02.2_725_01.jpg
p53
sS'3'
p54
(dp55
g3
Vimages/gov.ca.bsc.2010.02.2_726_01.jpg
p56
sg5
VN.T.S. 2
p57
ssg5
VN.T.S.
p58
ssV1613.5(3)
p59
(dp60
g3
Vimages/gov.ca.bsc.2010.02.2_054_01.jpg
p61
sg54
(dp62
g3
Vimages/gov.ca.bsc.2010.02.2_055_01.jpg
p63
sg5
V-continued MAXIMUM CONSIDERED EARTHQUAKE GROUND MOTION FOR REGION 1 OF 0.2 SEC SPECTRAL RESPONSE ACCELERATION (5% OF CRITICAL DAMPING), SITE CLASS B
p64
ssg5
VMAXIMUM CONSIDERED EARTHQUAKE GROUND MOTION FOR REGION 1 OF 0.2 SEC SPECTRAL RESPONSE ACCELERATION (5% OF CRITICAL DAMPING), SITE CLASS B
p65
ssV2308.12.6(8)
p66
(dp67
g3
Vimages/gov.ca.bsc.2010.02.2_408_03.jpg
p68
sg5
VOPENING LIMITATIONS FOR FLOOR AND ROOF DIAPHRAGMS
p69
ssV2308.12.6(1)
p70
(dp71
g3
Vimages/gov.ca.bsc.2010.02.2_406_01.jpg
p72
sg5
VBRACED WALL PANELS OUT OF PLANE
p73
ssV31F-3-3
p74
(dp75
g3
Vimages/gov.ca.bsc.2010.02.2_525_01.jpg
p76
sg5
VWIND SPEED CONVERSION FACTOR[3-12]
p77
ssV31F-3-2
p78
(dp79
g3
Vimages/gov.ca.bsc.2010.02.2_523_01.jpg
p80
sg5
VRESPONSE SPECTRA FOR PORT HUENEME, 475 YEAR RETURN PERIOD (5% Critical Damping)
p81
ssV1613.5(1)
p82
(dp83
g3
Vimages/gov.ca.bsc.2010.02.2_050_01.jpg
p84
sg54
(dp85
g3
Vimages/gov.ca.bsc.2010.02.2_051_01.jpg
p86
sg5
V-continued MAXIMUM CONSIDERED EARTHQUAKE GROUND MOTION FOR THE CONTERMINOUS UNITED STATES OF 0.2 SEC SPECTRAL RESPONSE ACCELERATION (5% OF CRITICAL DAMPING), SITE CLASS B
p87
ssg5
VMAXIMUM CONSIDERED EARTHQUAKE GROUND MOTION FOR THE CONTERMINOUS UNITED STATES OF 0.2 SEC SPECTRAL RESPONSE ACCELERATION (5% OF CRITICAL DAMPING), SITE CLASS B
p88
ssV31F-3-1
p89
(dp90
g3
Vimages/gov.ca.bsc.2010.02.2_522_01.jpg
p91
sg5
VDESIGN ACCELERATION RESPONSE SPECTRA FOR THE PORTS OF LOS ANGELES AND LONG BEACH, 475 YEAR RETURN PERIOD (5% Critical Dampling)
p92
ssV31F-3-4
p93
(dp94
g3
Vimages/gov.ca.bsc.2010.02.2_526_01.jpg
p95
sg5
VCURRENT VELOCITY CORRECTION FACTOR (p. 23, OCIMF, 1997 [3.13])
p96
ssV1613.5(7)
p97
(dp98
g3
Vimages/gov.ca.bsc.2010.02.2_060_01.jpg
p99
sg5
VMAXIMUM CONSIDERED EARTHQUAKE GROUND MOTION FOR REGION 3 OF 0.2 SEC SPECTRAL RESPONSE ACCELERATION (5% PERCENT OF CRITICAL DAMPING), SITE CLASS B
p100
ssV2308.11.3.3
p101
(dp102
g3
Vimages/gov.ca.bsc.2010.02.2_404_02.jpg
p103
sg5
VOPENINGS IN HORIZONTAL DIAPHRAGMS
p104
ssV2308.11.3.2
p105
(dp106
g3
Vimages/gov.ca.bsc.2010.02.2_404_01.jpg
p107
sg5
VSTEPPED FOOTING CONNECTION DETAILS
p108
ssV1613.5(4)
p109
(dp110
g3
Vimages/gov.ca.bsc.2010.02.2_056_01.jpg
p111
sg54
(dp112
g3
Vimages/gov.ca.bsc.2010.02.2_057_01.jpg
p113
sg5
V-continued MAXIMUM CONSIDERED EARTHQUAKE GROUND MOTION FOR REGION 1 OF 1.0 SEC SPECTRAL RESPONSE ACCELERATION (5% OF CRITICAL DAMPING), SITE CLASS B
p114
ssg5
VMAXIMUM CONSIDERED EARTHQUAKE GROUND MOTION FOR REGION 1 OF 1.0 SEC SPECTRAL RESPONSE ACCELERATION (5% OF CRITICAL DAMPING), SITE CLASS B
p115
ssV31F-7-3
p116
(dp117
g3
Vimages/gov.ca.bsc.2010.02.2_554_03.jpg
p118
sg5
VSTRESS-STRAIN CURVE FOR PRESTRESSED STEEL [7.4]
p119
ssV2308.12.6(4)
p120
(dp121
g3
Vimages/gov.ca.bsc.2010.02.2_407_02.jpg
p122
sg5
VROOF OR FLOOR EXTENSION BEYOND BRACED WALL LINE
p123
ssV2113.16
p124
(dp125
g3
Vimages/gov.ca.bsc.2010.02.2_290_01.jpg
p126
sg5
VFLUE SIZES FOR MASONRY CHIMNEYS
p127
ssV31F-7-14
p128
(dp129
g3
Vimages/gov.ca.bsc.2010.02.2_560_07.jpg
p130
sg5
VPUSHOVER CURVE FOR ORDINARY BATTER PILES
p131
ssV31F-5-5
p132
(dp133
g3
Vimages/gov.ca.bsc.2010.02.2_546_01.jpg
p134
sg5
VBERTHING ENERGY CAPACITY
p135
ssV31F-7-7
p136
(dp137
g3
Vimages/gov.ca.bsc.2010.02.2_557_07.jpg
p138
sg5
VTRANSVERSE SHEAR MECHANISM
p139
ssV1613.5(8)
p140
(dp141
g3
Vimages/gov.ca.bsc.2010.02.2_061_01.jpg
p142
sg5
VMAXIMUM CONSIDERED EARTHQUAKE GROUND MOTION FOR REGION 3 OF 1.0 SEC SPECTRAL RESPONSE ACCELERATION (5% OF CRITICAL DAMPING), SITE CLASS B
p143
ssV2308.12.6(5)
p144
(dp145
g3
Vimages/gov.ca.bsc.2010.02.2_407_03.jpg
p146
sg5
VBRACED WALL PANEL EXTENSION OVER OPENING
p147
ssV1808A.7.1
p148
(dp149
g3
Vimages/gov.ca.bsc.2010.02.2_217_01.jpg
p150
sg5
VFOUNDATION CLEARANCES FROM SLOPES
p151
ssV2308.12.6(3)
p152
(dp153
g3
Vimages/gov.ca.bsc.2010.02.2_407_01.jpg
p154
sg5
VFLOOR OR ROOF NOT SUPPORTED ON ALL EDGES
p155
ssV1614A.4
p156
(dp157
g3
Vimages/gov.ca.bsc.2010.02.2_118_02.jpg
p158
sg5
VLONGITUDINAL, PERIMETER, TRANSVERSE AND VERTICAL TIES
p159
ssV1608.2
p160
(dp161
g3
Vimages/gov.ca.bsc.2010.02.2_018_01.jpg
p162
sg54
(dp163
g3
Vimages/gov.ca.bsc.2010.02.2_019_01.jpg
p164
sg5
V-continued GROUND SNOW LOADS, pg, FOR THE UNITED STATES (psf)
p165
ssg5
VGROUND SNOW LOADS, pg FOR THE UNITED STATES (psf)
p166
ssV2308.12.6(7)
p167
(dp168
g3
Vimages/gov.ca.bsc.2010.02.2_408_02.jpg
p169
sg5
VBRACED WALL LINES NOT PERPENDICULAR
p170
ssV31B-5
p171
(dp172
g3
Vimages/gov.ca.bsc.2010.02.2_486_02.jpg
p173
sg5
VEFFECTIVE FENCING HEIGHT
p174
ssV1611.1
p175
(dp176
g5
V100-YEAR, 1-HOUR RAINFALL (INCHES) EASTERN UNITED STATES
p177
sg3
Vimages/gov.ca.bsc.2010.02.2_035_01.jpg
p178
sg54
(dp179
g3
Vimages/gov.ca.bsc.2010.02.2_036_01.jpg
p180
sg5
V-continued 100-YEAR, 1-HOUR RAINFALL (INCHES) CENTRAL UNITED STATES
p181
ssS'5'
p182
(dp183
g3
Vimages/gov.ca.bsc.2010.02.2_038_01.jpg
p184
sg5
V-continued 100-YEAR, 1-HOUR RAINFALL (INCHES) ALASKA
p185
ssS'4'
p186
(dp187
g3
Vimages/gov.ca.bsc.2010.02.2_037_01.jpg
p188
sg5
V-continued 100-YEAR, 1-HOUR RAINFAL (INCHES) WESTERN UNITED STATES
p189
ssS'6'
p190
(dp191
g3
Vimages/gov.ca.bsc.2010.02.2_039_01.jpg
p192
sg5
V-continued 100-YEAR, 1-HOUR RAINFALL (INCHES) HAWAII
p193
sssV1613.5(11)
p194
(dp195
g3
Vimages/gov.ca.bsc.2010.02.2_064_01.jpg
p196
sg5
VMAXIMUM CONSIDERED EARTHQUAKE GROUND MOTION FOR ALASKA OF 0.2 SEC SPECTRAL RESPONSE ACCELERATION (5% OF CRITICAL DAMPING), SITE CLASS B
p197
ssV1611A.1
p198
(dp199
g3
Vimages/gov.ca.bsc.2010.02.2_105_01.jpg
p200
sg54
(dp201
g3
Vimages/gov.ca.bsc.2010.02.2_107_01.jpg
p202
sg5
V-continued 100-YEAR, 1-HOUR RAINFALL (INCHES) ALASKA
p203
ssg182
(dp204
g3
Vimages/gov.ca.bsc.2010.02.2_109_01.jpg
p205
sg5
V-continued 100-YEAR, 1-HOUR RAINFALL (INCHES) HAWAII
p206
ssg5
V100-YEAR, 1-HOUR RAINFALL (INCHES) EASTERN UNITED STATES
p207
sg186
(dp208
g3
Vimages/gov.ca.bsc.2010.02.2_108_01.jpg
p209
sg5
V-continued 100-YEAR, 1-HOUR RAINFALL (INCHES) HAWALL
p210
sssV1613.5(13)
p211
(dp212
g3
Vimages/gov.ca.bsc.2010.02.2_066_01.jpg
p213
sg5
VMAXIMUM CONSIDERED EARTHQUAKE GROUND MOTION FOR PUERTO RICO, CULEBRA, VIEQUES, ST. THOMAS, ST. JOHN AND ST. CROIX OF 0.2 AND 1.0 SEC SPECTRAL RESPONSE ACCELERATION (5% OF CRITICAL DAMPING), SITE CLASS B
p214
ssV31B-2
p215
(dp216
g3
Vimages/gov.ca.bsc.2010.02.2_481_01.jpg
p217
sg5
VDEPTH AND CLEARANCES FOR POOLS WITH DIVING BOARDS
p218
ssV31B-3
p219
(dp220
g3
Vimages/gov.ca.bsc.2010.02.2_482_01.jpg
p221
sg5
VDEPTH AND CLEARANCES FOR POOLS WITHOUT DIVING BOARDS
p222
ssV31F-7-5
p223
(dp224
g3
Vimages/gov.ca.bsc.2010.02.2_556_01.jpg
p225
sg5
VMOMENT CURVATURE ANALYSIS
p226
ssV1613.5(12)
p227
(dp228
g3
Vimages/gov.ca.bsc.2010.02.2_065_01.jpg
p229
sg5
VMAXIMUM CONSIDERED EARTHQUAKE GROUND MOTION FOR ALASKA OF 1.0 SEC SPECTRAL RESPONSE ACCELERATION (5% OF CRITICAL DAMPING), SITE CLASS B
p230
ssV31F-2-1
p231
(dp232
g3
Vimages/gov.ca.bsc.2010.02.2_520_01.jpg
p233
sg5
V
p234
ssV1613.5(14)
p235
(dp236
g3
Vimages/gov.ca.bsc.2010.02.2_067_01.jpg
p237
sg5
VMAXIMUM CONSIDERED EARTHQUAKE GROUND MOTION FOR GUAM AND TUTUILLA OF 0.2 AND 1.0 SEC SPECTRAL RESPONSE ACCELERATION (5% OF CRITICAL DAMPING), SITE CLASS B
p238
ssV31F-7-15
p239
(dp240
g3
Vimages/gov.ca.bsc.2010.02.2_562_02.jpg
p241
sg5
VASSUMED IN-GROUND FIXITY
p242
ssV2111A.11
p243
(dp244
g3
Vimages/gov.ca.bsc.2010.02.2_311_01.jpg
p245
sg5
VILLUSTRATION OF EXCEPTION TO FIREPLACE CLEARANCE PROVISION
p246
ssV1904A.3
p247
(dp248
g3
Vimages/gov.ca.bsc.2010.02.2_254_01.jpg
p249
sg5
VWEATHERING PROBABILITY MAP FOR CONCRETE
p250
ssVJ107.3
p251
(dp252
g3
Vimages/gov.ca.bsc.2010.02.2_720_01.jpg
p253
sg5
VBENCHING DETAILS
p254
ssV1613.5(2)
p255
(dp256
g3
Vimages/gov.ca.bsc.2010.02.2_052_01.jpg
p257
sg54
(dp258
g3
Vimages/gov.ca.bsc.2010.02.2_053_01.jpg
p259
sg5
V-continued MAXIMUM CONSIDERED EARTHQUAKE GROUND MOTION FOR THE CONTERMINOUS UNITED STATES OF 1.0 SEC SPECTRAL RESPONSE ACCELERATION (5% OF CRITICAL DAMPING), SITE CLASS B
p260
ssg5
VMAXIMUM CONSIDERED EARTHQUAKE GROUND MOTION FOR THE CONTERMINOUS UNITED STATES OF 1.0 SEC SPECTRAL RESPONSE ACCELERATION (5% OF CRITICAL DAMPING), SITE CLASS B
p261
ssV31B-4
p262
(dp263
g3
Vimages/gov.ca.bsc.2010.02.2_486_01.jpg
p264
sg5
VPERPENDICULAR FENCING DIMENSIONS ON SLOPING GROUND
p265
ssV31F-4-6
p266
(dp267
g3
Vimages/gov.ca.bsc.2010.02.2_539_06.jpg
p268
sg5
VSTIFFNESS FOR LINEAR MODAL ANALYSIS
p269
ssV1608A.2
p270
(dp271
g3
Vimages/gov.ca.bsc.2010.02.2_092_01.jpg
p272
sg54
(dp273
g3
Vimages/gov.ca.bsc.2010.02.2_093_01.jpg
p274
sg5
V-continued GROUND SNOW LOADS, pg FOR THE UNITED STATES (psf)
p275
ssg5
VGROUND SNOW LOADS, pg, FOR THE UNITED STATES (psf)
p276
ssV1613.5(6)
p277
(dp278
g3
Vimages/gov.ca.bsc.2010.02.2_059_01.jpg
p279
sg5
VMAXIMUM CONSIDERED EARTHQUAKE GROUND MOTION FOR REGION 2 OF 1.0 SEC SPECTRAL RESPONSE ACCELERATION (5% OF CRITICAL DAMPING), SITE CLASS B
p280
ssV2308.9.3.2
p281
(dp282
g3
Vimages/gov.ca.bsc.2010.02.2_378_01.jpg
p283
sg5
VALTERNATE BRACED WALL PANEL ADJACENT TO A DOOR OR WINDOW OPENING
p284
ssV1614.4
p285
(dp286
g3
Vimages/gov.ca.bsc.2010.02.2_068_01.jpg
p287
sg5
VLONGITUDINAL, PERIMETER, TRANSVERSE AND VERTICAL TIES
p288
ssV1609
p289
(dp290
g5
VBASIC WIND SPEED (3-SECOND GUST)
p291
sg3
Vimages/gov.ca.bsc.2010.02.2_022_01.jpg
p292
sg54
(dp293
g3
Vimages/gov.ca.bsc.2010.02.2_023_01.jpg
p294
sg5
V-continued BASIC WIND SPEED (3-SECOND GUST)
p295
ssg182
(dp296
g3
Vimages/gov.ca.bsc.2010.02.2_025_01.jpg
p297
sg5
V-continued BASIC WIND SPEED (3-SECOND GUST) EASTERN GULF OF MEXICO AND SOUTHEASTERN U.S. HURRICANE COASTLINE
p298
ssg186
(dp299
g3
Vimages/gov.ca.bsc.2010.02.2_024_01.jpg
p300
sg5
V-continued BASIC WIND SPEED (3-SECOND GUST) WESTERN GULF OF MEXICO HURRICANE COASTLINE
p301
ssg190
(dp302
g3
Vimages/gov.ca.bsc.2010.02.2_026_01.jpg
p303
sg5
V-continued BASIC WIND SPEED (3-SECOND GUST) MID AND NORTHERN ATLANTIC HURRICANE COASTLINE
p304
sssV1613.5(5)
p305
(dp306
g3
Vimages/gov.ca.bsc.2010.02.2_058_01.jpg
p307
sg5
VMAXIMUM CONSIDERED EARTHQUAKE GROUND MOTION FOR REGION 2 OF 0.2 SEC SPECTRAL RESPONSE ACCELERATION (5% OF CRITICAL DAMPING), SITE CLASS B
p308
ssV1611.A.1
p309
(dp310
g3
Vimages/gov.ca.bsc.2010.02.2_106_01.jpg
p311
sg5
V-continued 100-YEAR, 1-HOUR RAINFALL (INCHES) WESTERN UNITED STATES
p312
ssV1609A
p313
(dp314
g3
Vimages/gov.ca.bsc.2010.02.2_096_01.jpg
p315
sg5
VBASIC WIND SPEED (3-SECOND GUST)
p316
ssV1904.3
p317
(dp318
g3
Vimages/gov.ca.bsc.2010.02.2_237_01.jpg
p319
sg5
VWEATHERING PROBABILITY MAP FOR CONCRETE
p320
ssV2308.12.6(2)
p321
(dp322
g3
Vimages/gov.ca.bsc.2010.02.2_406_02.jpg
p323
sg5
VBRACED WALL PANELS SUPPORTED BY CANTILEVER OR SET BACK
p324
ssV31B-1
p325
(dp326
g3
Vimages/gov.ca.bsc.2010.02.2_480_01.jpg
p327
sg5
VDEPTH AND CLEARANCE FOR POOLS WITH BOARDS ABOVE 30 INCHES (762 mm)
p328
ssV1613.5(9)
p329
(dp330
g3
Vimages/gov.ca.bsc.2010.02.2_062_01.jpg
p331
sg5
VMAXIMUM CONSIDERED EARTHQUAKE GROUND MOTION FOR REGION 4 OF 0.2 AND 1.0 SEC SPECTRAL RESPONSE ACCELERATION (5% OF CRITICAL DAMPING), SITE CLASS B
p332
ssV31F-4-1
p333
(dp334
g3
Vimages/gov.ca.bsc.2010.02.2_536_01.jpg
p335
sg5
VPIER AND WHARF CONFIGURATIONS
p336
ssV1613.5(10)
p337
(dp338
g3
Vimages/gov.ca.bsc.2010.02.2_063_01.jpg
p339
sg5
VMAXIMUM CONSIDERED EARTHQUAKE GROUND MOTION FOR HAWAII OF 0.2 AND 1.0 SEC SPECTRAL RESPONSE ACCELERATION (5% OF CRITICAL DAMPING), SITE CLASS B
p340
ssV1808.7.1
p341
(dp342
g3
Vimages/gov.ca.bsc.2010.02.2_188_01.jpg
p343
sg5
VFOUNDATION CLEARANCES FROM SLOPES
p344
ssV2308.9.3
p345
(dp346
g3
Vimages/gov.ca.bsc.2010.02.2_374_01.jpg
p347
sg5
VBASIC COMPONENTS OF THE LATERAL BRACING SYSTEM
p348
ssVJ108.1
p349
(dp350
g3
Vimages/gov.ca.bsc.2010.02.2_720_02.jpg
p351
sg5
VDRAINAGE DIMENSIONS
p352
ssV2308.12.6(6)
p353
(dp354
g3
Vimages/gov.ca.bsc.2010.02.2_408_01.jpg
p355
sg5
VPORTIONS OF FLOOR LEVEL OFFSET VERTICALLY
p356
ss.