(dp0
V24
p1
(dp2
S'figures'
p3
(dp4
sS'sections'
p5
(dp6
V2406
p7
(dp8
g5
(dp9
sS'name'
p10
VSAFETY GLAZING
p11
ssV2407
p12
(dp13
g5
(dp14
sg10
VGLASS IN HANDRAILS AND GUARDS
p15
ssV2404
p16
(dp17
g5
(dp18
sg10
VWIND, SNOW, SEISMIC AND DEAD LOADS ON GLASS
p19
ssV2405
p20
(dp21
g5
(dp22
sg10
VSLOPED GLAZING AND SKYLIGHTS
p23
ssV2402
p24
(dp25
g5
(dp26
sg10
VDEFINITIONS
p27
ssV2403
p28
(dp29
g5
(dp30
sg10
VGENERAL REQUIREMENTS FOR GLASS
p31
ssV2401
p32
(dp33
g5
(dp34
sg10
VGENERAL
p35
ssV2408
p36
(dp37
g5
(dp38
sg10
VGLAZING IN ATHLETIC FACILITIES
p39
ssV2409
p40
(dp41
g5
(dp42
sg10
VGLASS IN ELEVATOR HOISTWAYS 
p43
sssg10
VGLASS AND GLAZING
p44
sS'tables'
p45
(dp46
ssV25
p47
(dp48
g3
(dp49
sg5
(dp50
V2503
p51
(dp52
g5
(dp53
sg10
VINSPECTION
p54
ssV2502
p55
(dp56
g5
(dp57
sg10
VDEFINITIONS
p58
ssV2501
p59
(dp60
g5
(dp61
sg10
VGENERAL
p62
ssV2509
p63
(dp64
g5
(dp65
sg10
VGYPSUM BOARD IN SHOWERS AND WATER CLOSETS
p66
ssV2508
p67
(dp68
g5
(dp69
sg10
VGYPSUM CONSTRUCTION
p70
ssV2507
p71
(dp72
g5
(dp73
sg10
VLATHING AND PLASTERING
p74
ssV2506
p75
(dp76
g5
(dp77
sg10
VGYPSUM BOARD MATERIALS
p78
ssV2505
p79
(dp80
g5
(dp81
sg10
VSHEAR WALL CONSTRUCTION
p82
ssV2504
p83
(dp84
g5
(dp85
sg10
VVERTICAL AND HORIZONTAL ASSEMBLIES
p86
ssV2510
p87
(dp88
g5
(dp89
sg10
VLATHING AND FURRING FOR CEMENT PLASTER (STUCCO)
p90
ssV2511
p91
(dp92
g5
(dp93
sg10
VINTERIOR PLASTER
p94
ssV2512
p95
(dp96
g5
(dp97
sg10
VEXTERIOR PLASTER
p98
ssV2513
p99
(dp100
g5
(dp101
sg10
VEXPOSED AGGREGATE PLASTER
p102
sssg10
VGYPSUM BOARD AND PLASTER
p103
sg45
(dp104
ssV26
p105
(dp106
g3
(dp107
sg5
(dp108
V2604
p109
(dp110
g5
(dp111
sg10
VINTERIOR FINISH AND TRIM
p112
ssV2605
p113
(dp114
g5
(dp115
sg10
VPLASTIC VENEER
p116
ssV2606
p117
(dp118
g5
(dp119
sg10
VLIGHT-TRANSMITTING PLASTICS
p120
ssV2607
p121
(dp122
g5
(dp123
sg10
VLIGHT-TRANSMITTING PLASTIC WALL PANELS
p124
ssV2613
p125
(dp126
g5
(dp127
sg10
VREFLECTIVE PLASTIC CORE INSULATION
p128
ssV2612
p129
(dp130
g5
(dp131
sg10
VFIBER REINFORCED POLYMER AND FIBERGLASS REINFORCED POLYMER
p132
ssV2602
p133
(dp134
g5
(dp135
sg10
VDEFINITIONS
p136
ssV2610
p137
(dp138
g5
(dp139
sg10
VLIGHT-TRANSMITTING PLASTIC SKYLIGHT GLAZING
p140
ssV2603
p141
(dp142
g5
(dp143
sg10
VFOAM PLASTIC INSULATION
p144
ssV2608
p145
(dp146
g5
(dp147
sg10
VLIGHT-TRANSMITTING PLASTIC GLAZING
p148
ssV2609
p149
(dp150
g5
(dp151
sg10
VLIGHT-TRANSMITTING PLASTIC ROOF PANELS
p152
ssV2611
p153
(dp154
g5
(dp155
sg10
VLIGHT-TRANSMITTING PLASTIC INTERIOR SIGNS
p156
ssV2601
p157
(dp158
g5
(dp159
sg10
VGENERAL
p160
sssg10
VPLASTIC
p161
sg45
(dp162
ssV27
p163
(dp164
g3
(dp165
sg5
(dp166
V2701
p167
(dp168
g5
(dp169
sg10
VGENERAL
p170
sssg10
VELECTRICAL
p171
sg45
(dp172
ssV20
p173
(dp174
g3
(dp175
sg5
(dp176
V2002
p177
(dp178
g5
(dp179
sg10
VMATERIALS
p180
ssV2001
p181
(dp182
g5
(dp183
sg10
VGENERAL
p184
sssg10
VALUMINUM
p185
sg45
(dp186
ssV21
p187
(dp188
g3
(dp189
sg5
(dp190
V2114
p191
(dp192
g5
(dp193
sg10
VADDITIONAL REQUIREMENTS [DSA-SS/CC]
p194
ssV2101
p195
(dp196
g5
(dp197
sg10
VGENERAL
p198
ssV2103
p199
(dp200
g5
(dp201
sg10
VMASONRY CONSTRUCTION MATERIALS
p202
ssV2109
p203
(dp204
g5
(dp205
sg10
VEMPIRICAL DESIGN OF MASONRY
p206
ssV2108
p207
(dp208
g5
(dp209
sg10
VSTRENGTH DESIGN OF MASONRY
p210
ssV2102
p211
(dp212
g5
(dp213
sg10
VDEFINITIONS AND NOTATIONS
p214
ssV2110
p215
(dp216
g5
(dp217
sg10
VGLASS UNIT MASONRY
p218
ssV2111
p219
(dp220
g5
(dp221
sg10
VMASONRY FIREPLACES
p222
ssV2112
p223
(dp224
g5
(dp225
sg10
VMASONRY HEATERS
p226
ssV2113
p227
(dp228
g5
(dp229
sg10
VMASONRY CHIMNEYS
p230
ssV2107
p231
(dp232
g5
(dp233
sg10
VALLOWABLE STRESS DESIGN
p234
ssV2106
p235
(dp236
g5
(dp237
sg10
VSEISMIC DESIGN
p238
ssV2105
p239
(dp240
g5
(dp241
sg10
VQUALITY ASSURANCE
p242
ssV2104
p243
(dp244
g5
(dp245
sg10
VCONSTRUCTION
p246
sssg10
VMASONRY
p247
sg45
(dp248
ssV22
p249
(dp250
g3
(dp251
sg5
(dp252
V2201
p253
(dp254
g5
(dp255
sg10
VGENERAL
p256
ssV2202
p257
(dp258
g5
(dp259
sg10
VDEFINITIONS
p260
ssV2203
p261
(dp262
g5
(dp263
sg10
VIDENTIFICATION AND PROTECTION OF STEEL FOR STRUCTURAL PURPOSES
p264
ssV2204
p265
(dp266
g5
(dp267
sg10
VCONNECTIONS
p268
ssV2205
p269
(dp270
g5
(dp271
sg10
VSTRUCTURAL STEEL
p272
ssV2206
p273
(dp274
g5
(dp275
sg10
VSTEEL JOISTS
p276
ssV2207
p277
(dp278
g5
(dp279
sg10
VSTEEL CABLE STRUCTURES
p280
ssV2208
p281
(dp282
g5
(dp283
sg10
VSTEEL STORAGE RACKS
p284
ssV2209
p285
(dp286
g5
(dp287
sg10
VCOLD-FORMED STEEL
p288
ssV2210
p289
(dp290
g5
(dp291
sg10
VCOLD-FORMED STEELLIGHT-FRAME CONSTRUCTION
p292
sssg10
VSTEEL
p293
sg45
(dp294
ssV23
p295
(dp296
g3
(dp297
sg5
(dp298
V2308
p299
(dp300
g5
(dp301
sg10
VCONVENTIONAL LIGHT-FRAME CONSTRUCTION
p302
ssV2301
p303
(dp304
g5
(dp305
sg10
VGENERAL
p306
ssV2303
p307
(dp308
g5
(dp309
sg10
VMINIMUM STANDARDS AND QUALITY
p310
ssV2302
p311
(dp312
g5
(dp313
sg10
VDEFINITIONS
p314
ssV2305
p315
(dp316
g5
(dp317
sg10
VGENERAL DESIGN REQUIREMENTS FOR LATERAL-FORCE-RESISTING SYSTEMS
p318
ssV2304
p319
(dp320
g5
(dp321
sg10
VGENERAL CONSTRUCTION REQUIREMENTS
p322
ssV2307
p323
(dp324
g5
(dp325
sg10
VLOAD AND RESISTANCE FACTOR DESIGN
p326
ssV2306
p327
(dp328
g5
(dp329
sg10
VALLOWABLE STRESS DESIGN
p330
sssg10
VWOOD
p331
sg45
(dp332
ssVG901
p333
(dp334
g5
(dp335
sg10
VTEMPORARY STRUCTURES AND TEMPORARY STORAGE
p336
ssV28
p337
(dp338
g3
(dp339
sg5
(dp340
V2801
p341
(dp342
g5
(dp343
sg10
VGENERAL
p344
sssg10
VMECHANICAL SYSTEMS
p345
sg45
(dp346
ssV29
p347
(dp348
g3
(dp349
sg5
(dp350
V2901
p351
(dp352
g5
(dp353
sg10
VGENERAL
p354
sssg10
VPLUMBING SYSTEMS (Not adopted by the State of California)
p355
sg45
(dp356
ssVG701
p357
(dp358
g5
(dp359
sg10
VTANKS
p360
ssVA102
p361
(dp362
g5
(dp363
sg10
VREFERENCED STANDARDS
p364
ssVA101
p365
(dp366
g5
(dp367
sg10
VBUILDING OFFICIAL QUALIFICATIONS
p368
ssVB101
p369
(dp370
g5
(dp371
sg10
VGENERAL
p372
ssVG401
p373
(dp374
g5
(dp375
sg10
VSITE IMPROVEMENT
p376
ssVG1001
p377
(dp378
g5
(dp379
sg10
VUTILITY AND MISCELLANEOUS GROUP U
p380
ssV21A
p381
(dp382
g3
(dp383
sg5
(dp384
V2103A
p385
(dp386
g5
(dp387
sg10
VMASONRY CONSTRUCTION MATERIALS
p388
ssV2102A
p389
(dp390
g5
(dp391
sg10
VDEFINITIONS AND NOTATIONS
p392
ssV2114A
p393
(dp394
g5
(dp395
sg10
VNONBEARING WALLS
p396
ssV2101A
p397
(dp398
g5
(dp399
sg10
VGENERAL
p400
ssV2115A
p401
(dp402
g5
(dp403
sg10
VMASONRY SCREEN WALLS
p404
sssg10
VMASONRY
p405
sg45
(dp406
ssVJ110
p407
(dp408
g5
(dp409
sg10
VEROSION CONTROL
p410
ssVJ111
p411
(dp412
g5
(dp413
sg10
VREFERENCED STANDARDS
p414
ssVJ106
p415
(dp416
g5
(dp417
sg10
VEXCAVATIONS.
p418
ssVJ103
p419
(dp420
g5
(dp421
sg10
VPERMITS REQUIRED
p422
ssVJ102
p423
(dp424
g5
(dp425
sg10
VDEFINITIONS
p426
ssVJ101
p427
(dp428
g5
(dp429
sg10
VGENERAL
p430
ssVJ107
p431
(dp432
g5
(dp433
sg10
VFILLS
p434
ssVG501
p435
(dp436
g5
(dp437
sg10
VMANUFACTURED HOMES
p438
ssVJ105
p439
(dp440
g5
(dp441
sg10
VINSPECTIONS.
p442
ssVJ104
p443
(dp444
g5
(dp445
sg10
VPERMIT APPLICATION AND SUBMITTALS
p446
ssVJ109
p447
(dp448
g5
(dp449
sg10
VDRAINAGE AND TERRACING
p450
ssVJ108
p451
(dp452
g5
(dp453
sg10
VSETBACKS
p454
ssVD101
p455
(dp456
g5
(dp457
sg10
VGENERAL
p458
ssVD103
p459
(dp460
g5
(dp461
sg10
VCHANGES TO BUILDINGS
p462
ssVD102
p463
(dp464
g5
(dp465
sg10
VBUILDING RESTRICTIONS
p466
ssVD105
p467
(dp468
g5
(dp469
sg10
VEXCEPTIONS TO RESTRICTIONS IN FIRE DISTRICT
p470
ssVD104
p471
(dp472
g5
(dp473
sg10
VBUILDINGS LOCATED PARTIALLY IN THE FIRE DISTRICT
p474
ssVD106
p475
(dp476
g5
(dp477
sg10
VREFERENCED STANDARDS
p478
ssVH112
p479
(dp480
g5
(dp481
sg10
VPROJECTING SIGNS
p482
ssVH113
p483
(dp484
g5
(dp485
sg10
VMARQUEE SIGNS
p486
ssVH110
p487
(dp488
g5
(dp489
sg10
VROOF SIGNS
p490
ssVH111
p491
(dp492
g5
(dp493
sg10
VWALL SIGNS
p494
ssV35
p495
(dp496
g3
(dp497
sg5
(dp498
sg10
VREFERENCED STANDARDS
p499
sg45
(dp500
ssVH115
p501
(dp502
g5
(dp503
sg10
VREFERENCED STANDARDS
p504
ssV31C
p505
(dp506
g3
(dp507
sg5
(dp508
V3102C
p509
(dp510
g5
(dp511
sg10
VRADIATION SHIELDING BARRIERS
p512
ssV3104C
p513
(dp514
g5
(dp515
sg10
VMEDICAL THERAPEUTIC X-RAY INSTALLATIONS
p516
ssV3101C
p517
(dp518
g5
(dp519
sg10
VSCOPE
p520
ssV3103C
p521
(dp522
g5
(dp523
sg10
VMEDICAL RADIOGRAPHIC AND PHOTOFLUOROGRAPHIC INSTALLATIONS
p524
sssg10
V[DHS] RADIATION
p525
sg45
(dp526
ssV31B
p527
(dp528
g3
(dp529
sg5
(dp530
V3105B
p531
(dp532
g5
(dp533
sg10
VALTERNATE EQUIPMENT, MATERIALS AND METHODS OF CONSTRUCTION
p534
ssV3123B
p535
(dp536
g5
(dp537
sg10
VGENERAL REQUIRMENTS
p538
ssV3136B
p539
(dp540
g5
(dp541
sg10
VCLEANING SYSTEMS
p542
ssV3117B
p543
(dp544
g5
(dp545
sg10
VHOSE BIBBS
p546
ssV3125B
p547
(dp548
g5
(dp549
sg10
VRECIRCULATION PIPING SYSTEM AND COMPONENTS
p550
ssV3107B
p551
(dp552
g5
(dp553
sg10
VADDITIONAL REQUIREMENTS FOR A TEMPORARY TRAINING POOL
p554
ssV3115B
p555
(dp556
g5
(dp557
sg10
VBATHHOUSE DRESSING, SHOWER AND TOILET FACILITIES
p558
ssV3162B
p559
(dp560
g5
(dp561
sg10
VANTI-ENTRAPMENT DEVICES AND SYSTEMS
p562
ssV3122B
p563
(dp564
g5
(dp565
sg10
VGAS CHLORINATION EQUIPMENT ROOM
p566
ssV3103B
p567
(dp568
g5
(dp569
sg10
VSPECIAL POOL CLASSIFICATIONS
p570
ssV3108B
p571
(dp572
g5
(dp573
sg10
VPOOL GEOMETRY
p574
ssV3118B
p575
(dp576
g5
(dp577
sg10
VENCLOSURE OF POOL AREA
p578
ssV3133B
p579
(dp580
g5
(dp581
sg10
VDISINFECTANT FEEDERS
p582
ssV3128B
p583
(dp584
g5
(dp585
sg10
VFILTERS (ALL TYPES)
p586
ssV3131B
p587
(dp588
g5
(dp589
sg10
VHIGH-RATE SAND FILTERS
p590
ssV3124B
p591
(dp592
g5
(dp593
sg10
VTURNOVER TIME
p594
ssV3135B
p595
(dp596
g5
(dp597
sg10
VSPA POOL SPECIAL REQUIREMENTS
p598
ssV3112B
p599
(dp600
g5
(dp601
sg10
VDIVING BOARDS
p602
ssV3121B
p603
(dp604
g5
(dp605
sg10
VFOUNDATIONS FOR POOL EQUIPMENT
p606
ssV3126B
p607
(dp608
g5
(dp609
sg10
VRECIRCULATION PUMP CAPACITY
p610
ssV3116B
p611
(dp612
g5
(dp613
sg10
VDRINKING FOUNTAINS
p614
ssV3104B
p615
(dp616
g5
(dp617
sg10
VACCESSIBILITY TO THE PHYSICALLY HANDICAPPED PERSON
p618
ssV3137B
p619
(dp620
g5
(dp621
sg10
VWASTE WATER DISPOSAL
p622
ssV3110B
p623
(dp624
g5
(dp625
sg10
VSTEPS, RECESSED STEPS, LADDERS AND RECESSED STAIRS (TREADS)
p626
ssV3114B
p627
(dp628
g5
(dp629
sg10
VPOOL LIGHTING
p630
ssV3106B
p631
(dp632
g5
(dp633
sg10
VPOOL CONSTRUCTION
p634
ssV3120B
p635
(dp636
g5
(dp637
sg10
VINDOOR POOL VENTILATION
p638
ssV3102B
p639
(dp640
g5
(dp641
sg10
VDEFINITIONS
p642
ssV3119B
p643
(dp644
g5
(dp645
sg10
VSIGNS
p646
ssV3109B
p647
(dp648
g5
(dp649
sg10
VPERMANENT MARKINGS
p650
ssV3127B
p651
(dp652
g5
(dp653
sg10
VWATER SUPPLY INLETS
p654
ssV3129B
p655
(dp656
g5
(dp657
sg10
VRAPID SAND PRESSURE FILTERS
p658
ssV3130B
p659
(dp660
g5
(dp661
sg10
VDIATOMACEOUS EARTH FILTERS
p662
ssV3134B
p663
(dp664
g5
(dp665
sg10
VPOOL FITTINGS
p666
ssV3111B
p667
(dp668
g5
(dp669
sg10
VHANDHOLDS
p670
ssV3101B
p671
(dp672
g5
(dp673
sg10
VSCOPE
p674
ssV3132B
p675
(dp676
g5
(dp677
sg10
VCHEMICAL FEEDERS
p678
ssV3113B
p679
(dp680
g5
(dp681
sg10
VPOOL DECKS
p682
sssg10
V[DPH] PUBLIC SWIMMING POOLS
p683
sg45
(dp684
ssV31A
p685
(dp686
g3
(dp687
sg5
(dp688
sg10
V
p689
sg45
(dp690
ssV19A
p691
(dp692
g3
(dp693
sg5
(dp694
V1906A
p695
(dp696
g5
(dp697
sg10
VFORMWORK, EMBEDDED PIPES AND CONSTRUCTION JOINTS
p698
ssV1904A
p699
(dp700
g5
(dp701
sg10
VDURABILITY REQUIREMENTS
p702
ssV1907A
p703
(dp704
g5
(dp705
sg10
VDETAILS OF REINFORCEMENT
p706
ssV1915A
p707
(dp708
g5
(dp709
sg10
VCONCRETE-FILLED PIPE COLUMNS
p710
ssV1917A
p711
(dp712
g5
(dp713
sg10
VEXISTING CONCRETE STRUCTURES
p714
ssV1902A
p715
(dp716
g5
(dp717
sg10
VDEFINITIONS
p718
ssV1914A
p719
(dp720
g5
(dp721
sg10
VREINFORCED GYPSUM CONCRETE
p722
ssV1911A
p723
(dp724
g5
(dp725
sg10
VANCHORAGE TO CONCRETE\u2014ALLOWABLE STRESS DESIGN
p726
ssV1908A
p727
(dp728
g5
(dp729
sg10
VMODIFICATIONS TO ACI 318
p730
ssV1910A
p731
(dp732
g5
(dp733
sg10
VMINIMUM SLAB PROVISIONS
p734
ssV1901A
p735
(dp736
g5
(dp737
sg10
VGENERAL
p738
ssV1912A
p739
(dp740
g5
(dp741
sg10
VANCHORAGE TO CONCRETE\u2014 STRENGTH DESIGN
p742
ssV1905A
p743
(dp744
g5
(dp745
sg10
VCONCRETE QUALITY, MIXING AND PLACING
p746
ssV1903A
p747
(dp748
g5
(dp749
sg10
VSPECIFICATIONS FOR TESTS AND MATERIALS
p750
ssV1909A
p751
(dp752
g5
(dp753
sg10
VSTRUCTURAL PLAIN CONCRETE 
p754
ssV1913A
p755
(dp756
g5
(dp757
sg10
VSHOTCRETE
p758
ssV1916A
p759
(dp760
g5
(dp761
sg10
g689
sssg10
VCONCRETE
p762
sg45
(dp763
ssV31F
p764
(dp765
g3
(dp766
sg5
(dp767
sg10
V[SLC] - MARINE OIL TERMINALS
p768
sg45
(dp769
ssVF101
p770
(dp771
g5
(dp772
sg10
VGENERAL
p773
ssV31D
p774
(dp775
g3
(dp776
sg5
(dp777
V3103D
p778
(dp779
g5
(dp780
sg10
VBUILDING AND STRUCTURES
p781
ssV3101D
p782
(dp783
g5
(dp784
sg10
VSCOPE
p785
ssV3102D
p786
(dp787
g5
(dp788
sg10
VDEFINITIONS
p789
sssg10
V[DPH] FOOD ESTABLISHMENTS
p790
sg45
(dp791
ssVH105
p792
(dp793
g5
(dp794
sg10
VDESIGN AND CONSTRUCTION
p795
ssVH104
p796
(dp797
g5
(dp798
sg10
VIDENTIFICATION
p799
ssVH107
p800
(dp801
g5
(dp802
sg10
VCOMBUSTIBLE MATERIALS
p803
ssVH106
p804
(dp805
g5
(dp806
sg10
VELECTRICAL
p807
ssVH101
p808
(dp809
g5
(dp810
sg10
VGENERAL
p811
ssVH103
p812
(dp813
g5
(dp814
sg10
VLOCATION
p815
ssVH102
p816
(dp817
g5
(dp818
sg10
VDEFINITIONS
p819
ssVH109
p820
(dp821
g5
(dp822
sg10
VGROUND SIGNS
p823
ssVH108
p824
(dp825
g5
(dp826
sg10
VANIMATED DEVICES
p827
ssVG101
p828
(dp829
g5
(dp830
sg10
VADMINISTRATION
p831
ssVG102
p832
(dp833
g5
(dp834
sg10
VAPPLICABILITY
p835
ssVG103
p836
(dp837
g5
(dp838
sg10
VPOWERS AND DUTIES
p839
ssVG104
p840
(dp841
g5
(dp842
sg10
VPERMITS
p843
ssVG105
p844
(dp845
g5
(dp846
sg10
VVARIANCES
p847
ssV16A
p848
(dp849
g3
(dp850
sg5
(dp851
V1601A
p852
(dp853
g5
(dp854
sg10
VGENERAL
p855
ssV1611A
p856
(dp857
g5
(dp858
sg10
VRAIN LOADS
p859
ssV1609A
p860
(dp861
g5
(dp862
sg10
VWIND LOADS
p863
ssV1612A
p864
(dp865
g5
(dp866
sg10
VFLOOD LOADS
p867
ssV1608A
p868
(dp869
g5
(dp870
sg10
VSNOW LOADS
p871
ssV1603A
p872
(dp873
g5
(dp874
sg10
VCONSTRUCTION DOCUMENTS
p875
ssV1610A
p876
(dp877
g5
(dp878
sg10
VSOIL LATERAL LOADS
p879
ssV1605A
p880
(dp881
g5
(dp882
sg10
VLOAD COMBINATIONS
p883
ssV1604A
p884
(dp885
g5
(dp886
sg10
VGENERAL DESIGN REQUIREMENTS
p887
sssg10
VSTRUCTURAL DESIGN
p888
sg45
(dp889
ssV22A
p890
(dp891
g3
(dp892
sg5
(dp893
V2208A
p894
(dp895
g5
(dp896
sg10
VSTEEL STORAGE RACKS
p897
ssV2206A
p898
(dp899
g5
(dp900
sg10
VSTEEL JOISTS
p901
ssV2209A
p902
(dp903
g5
(dp904
sg10
VCOLD-FORMED STEEL
p905
ssV2204A
p906
(dp907
g5
(dp908
sg10
VCONNECTIONS
p909
ssV2202A
p910
(dp911
g5
(dp912
sg10
VDEFINITIONS
p913
ssV2205A
p914
(dp915
g5
(dp916
sg10
VSTRUCTURAL STEEL
p917
ssV2212A
p918
(dp919
g5
(dp920
sg10
VTESTING
p921
ssV2207A
p922
(dp923
g5
(dp924
sg10
VSTEEL CABLE STRUCTURES
p925
ssV2210A
p926
(dp927
g5
(dp928
sg10
VCOLD-FORMED STEEL LIGHT-FRAME CONSTRUCTION
p929
ssV2211A
p930
(dp931
g5
(dp932
sg10
V[DSA-SS] LIGHT MODULAR STEEL MOMENT FRAMES FOR PUBLIC ELEMENTARY AND SECONDARY SCHOOLS, AND COMMUNITY COLLEGES
p933
ssV2203A
p934
(dp935
g5
(dp936
sg10
VIDENTIFICATION AND PROTECTION OF STEEL FOR STRUCTURAL PURPOSES
p937
sssg10
VSTEEL
p938
sg45
(dp939
ssVK104
p940
(dp941
g5
(dp942
sg10
VEVACUATION LOCATIONS
p943
ssVK105
p944
(dp945
g5
(dp946
sg10
VSPACE WITHIN THE BUILDING
p947
ssVK106
p948
(dp949
g5
(dp950
sg10
VDECKS AND BALCONIES THAT ARE EVACUATION LOCATIONS
p951
ssVK107
p952
(dp953
g5
(dp954
sg10
VROOFTOP EVACUATION LOCATIONS
p955
ssVK101
p956
(dp957
g5
(dp958
sg10
VSCOPE
p959
ssVK102
p960
(dp961
g5
(dp962
sg10
VDEFINITIONS
p963
ssVK103
p964
(dp965
g5
(dp966
sg10
VSTRUCTURAL STABILITY
p967
ssVK108
p968
(dp969
g5
(dp970
sg10
VATTICS THAT ARE EVACUATION LOCATIONS
p971
ssVK109
p972
(dp973
g5
(dp974
sg10
VALTERNATE MEANS OF PROTECTION
p975
ssV18A
p976
(dp977
g3
(dp978
sg5
(dp979
V1801A
p980
(dp981
g5
(dp982
sg10
VGENERAL
p983
ssV1810A
p984
(dp985
g5
(dp986
sg10
VDEEP FOUNDATIONS
p987
ssV1808A
p988
(dp989
g5
(dp990
sg10
VFOUNDATIONS
p991
ssV1802A
p992
(dp993
g5
(dp994
sg10
VDEFINITIONS
p995
ssV1807A
p996
(dp997
g5
(dp998
sg10
VFOUNDATION WALLS, RETAINING WALLS AND EMBEDDED POSTS AND POLES
p999
ssV1806A
p1000
(dp1001
g5
(dp1002
sg10
VPRESUMPTIVE LOAD-BEARING VALUES OF SOILS
p1003
ssV1804A
p1004
(dp1005
g5
(dp1006
sg10
VEXCAVATION, GRADING AND FILL
p1007
ssV1805A
p1008
(dp1009
g5
(dp1010
sg10
VDAMPPROOFING AND WATERPROOFING
p1011
ssV1803A
p1012
(dp1013
g5
(dp1014
sg10
VGEOTECHNICAL INVESTIGATIONS
p1015
ssV1809A
p1016
(dp1017
g5
(dp1018
sg10
VSHALLOW FOUNDATIONS
p1019
sssg10
VSOILS AND FOUNDATIONS
p1020
sg45
(dp1021
ssVI104
p1022
(dp1023
g5
(dp1024
sg10
VSTRUCTURAL PROVISIONS
p1025
ssVI102
p1026
(dp1027
g5
(dp1028
sg10
VDEFINITIONS
p1029
ssVI103
p1030
(dp1031
g5
(dp1032
sg10
VEXTERIOR OPENINGS
p1033
ssVI101
p1034
(dp1035
g5
(dp1036
sg10
VGENERAL
p1037
ssV17
p1038
(dp1039
g3
(dp1040
sg5
(dp1041
V1713
p1042
(dp1043
g5
(dp1044
sg10
VTEST SAFE LOAD
p1045
ssV1701
p1046
(dp1047
g5
(dp1048
sg10
VGENERAL
p1049
ssV1702
p1050
(dp1051
g5
(dp1052
sg10
VDEFINITIONS
p1053
ssV1703
p1054
(dp1055
g5
(dp1056
sg10
VAPPROVALS
p1057
ssV1704
p1058
(dp1059
g5
(dp1060
sg10
VSPECIAL INSPECTIONS
p1061
ssV1705
p1062
(dp1063
g5
(dp1064
sg10
VSTATEMENT OF SPECIAL INSPECTIONS
p1065
ssV1706
p1066
(dp1067
g5
(dp1068
sg10
VSPECIAL INSPECTIONS FOR WIND REQUIREMENTS
p1069
ssV1707
p1070
(dp1071
g5
(dp1072
sg10
VSPECIAL INSPECTIONS FOR SEISMIC RESISTANCE
p1073
ssV1708
p1074
(dp1075
g5
(dp1076
sg10
VSTRUCTURAL TESTING FOR SEISMIC RESISTANCE
p1077
ssV1709
p1078
(dp1079
g5
(dp1080
sg10
VCONTRACTOR RESPONSIBILITY
p1081
ssV1714
p1082
(dp1083
g5
(dp1084
sg10
VIN-SITU LOAD TESTS
p1085
ssV1711
p1086
(dp1087
g5
(dp1088
sg10
VDESIGN STRENGTHS OF MATERIALS
p1089
ssV1715
p1090
(dp1091
g5
(dp1092
sg10
VPRECONSTRUCTION LOAD TESTS
p1093
ssV1710
p1094
(dp1095
g5
(dp1096
sg10
VSTRUCTURAL OBSERVATIONS
p1097
ssV1712
p1098
(dp1099
g5
(dp1100
sg10
VALTERNATIVE TEST PROCEDURE
p1101
ssV1716
p1102
(dp1103
g5
(dp1104
sg10
VMATERIAL AND TEST STANDARDS
p1105
sssg10
VSTRUCTURAL TESTS AND SPECIAL INSPECTIONS
p1106
sg45
(dp1107
ssV16
p1108
(dp1109
g3
(dp1110
sg5
(dp1111
V1609
p1112
(dp1113
g5
(dp1114
sg10
VWIND LOADS
p1115
ssV1608
p1116
(dp1117
g5
(dp1118
sg10
VSNOW LOADS
p1119
ssV1602
p1120
(dp1121
g5
(dp1122
sg10
VDEFINITIONS AND NOTATIONS
p1123
ssV1601
p1124
(dp1125
g5
(dp1126
sg10
VGENERAL
p1127
ssV1605
p1128
(dp1129
g5
(dp1130
sg10
VLOAD COMBINATIONS
p1131
ssV1614
p1132
(dp1133
g5
(dp1134
sg10
VSTRUCTURAL INTEGRITY
p1135
ssV1615
p1136
(dp1137
g5
(dp1138
sg10
VADDITIONAL REQUIREMENTS [DSA-SS/CC]
p1139
ssV1612
p1140
(dp1141
g5
(dp1142
sg10
VFLOOD LOADS
p1143
ssV1613
p1144
(dp1145
g5
(dp1146
sg10
VEARTHQUAKE LOADS
p1147
ssV1610
p1148
(dp1149
g5
(dp1150
sg10
VSOIL LATERAL LOADS
p1151
ssV1611
p1152
(dp1153
g5
(dp1154
sg10
VRAIN LOADS
p1155
ssV1607
p1156
(dp1157
g5
(dp1158
sg10
VLIVE LOADS
p1159
ssV1606
p1160
(dp1161
g5
(dp1162
sg10
VDEAD LOADS
p1163
ssV1604
p1164
(dp1165
g5
(dp1166
sg10
VGENERAL DESIGN REQUIREMENTS
p1167
ssV1603
p1168
(dp1169
g5
(dp1170
sg10
VCONSTRUCTION DOCUMENTS
p1171
sssg10
VSTRUCTURAL DESIGN
p1172
sg45
(dp1173
ssV19
p1174
(dp1175
g3
(dp1176
sg5
(dp1177
V1912
p1178
(dp1179
g5
(dp1180
sg10
VANCHORAGE TO CONCRETE\u2014 STRENGTH DESIGN
p1181
ssV1915
p1182
(dp1183
g5
(dp1184
sg10
VCONCRETE-FILLED PIPE COLUMNS
p1185
ssV1913
p1186
(dp1187
g5
(dp1188
sg10
VSHOTCRETE
p1189
ssV1910
p1190
(dp1191
g5
(dp1192
sg10
VMINIMUM SLAB PROVISIONS
p1193
ssV1914
p1194
(dp1195
g5
(dp1196
sg10
VREINFORCED GYPSUM CONCRETE
p1197
ssV1911
p1198
(dp1199
g5
(dp1200
sg10
VANCHORAGE TO CONCRETE\u2014 ALLOWABLE STRESS DESIGN
p1201
ssV1908
p1202
(dp1203
g5
(dp1204
sg10
VMODIFICATIONS TO ACI 318
p1205
ssV1909
p1206
(dp1207
g5
(dp1208
sg10
VSTRUCTURAL PLAIN CONCRETE
p1209
ssV1906
p1210
(dp1211
g5
(dp1212
sg10
VFORMWORK, EMBEDDED PIPES AND CONSTRUCTION JOINTS
p1213
ssV1907
p1214
(dp1215
g5
(dp1216
sg10
VDETAILS OF REINFORCEMENT
p1217
ssV1904
p1218
(dp1219
g5
(dp1220
sg10
VDURABILITY REQUIREMENTS
p1221
ssV1905
p1222
(dp1223
g5
(dp1224
sg10
VCONCRETE QUALITY, MIXING AND PLACING
p1225
ssV1902
p1226
(dp1227
g5
(dp1228
sg10
VDEFINITIONS
p1229
ssV1903
p1230
(dp1231
g5
(dp1232
sg10
VSPECIFICATIONS FOR TESTS AND MATERIALS
p1233
ssV1901
p1234
(dp1235
g5
(dp1236
sg10
VGENERAL
p1237
sssg10
VCONCRETE
p1238
sg45
(dp1239
ssV18
p1240
(dp1241
g3
(dp1242
sg5
(dp1243
V1807
p1244
(dp1245
g5
(dp1246
sg10
VFOUNDATION WALLS, RETAINING WALLS AND EMBEDDED POSTS AND POLES
p1247
ssV1806
p1248
(dp1249
g5
(dp1250
sg10
VPRESUMPTIVE LOAD-BEARING VALUES OF SOILS
p1251
ssV1805
p1252
(dp1253
g5
(dp1254
sg10
VDAMPPROOFING AND WATERPROOFING
p1255
ssV1804
p1256
(dp1257
g5
(dp1258
sg10
VEXCAVATION, GRADING AND FILL
p1259
ssV1803
p1260
(dp1261
g5
(dp1262
sg10
VGEOTECHNICAL INVESTIGATIONS
p1263
ssV1802
p1264
(dp1265
g5
(dp1266
sg10
VDEFINITIONS
p1267
ssV1801
p1268
(dp1269
g5
(dp1270
sg10
VGENERAL
p1271
ssV1809
p1272
(dp1273
g5
(dp1274
sg10
VSHALLOW FOUNDATIONS
p1275
ssV1808
p1276
(dp1277
g5
(dp1278
sg10
VFOUNDATIONS
p1279
ssV1810
p1280
(dp1281
g5
(dp1282
sg10
VDEEP FOUNDATIONS
p1283
sssg10
VSOILS AND FOUNDATIONS
p1284
sg45
(dp1285
ssV17A
p1286
(dp1287
g3
(dp1288
sg5
(dp1289
V1708A
p1290
(dp1291
g5
(dp1292
sg10
VSTRUCTURAL TESTING FOR SEISMIC RESISTANCE
p1293
ssV1715A
p1294
(dp1295
g5
(dp1296
sg10
VPRECONSTRUCTION LOAD TESTS
p1297
ssV1709A
p1298
(dp1299
g5
(dp1300
sg10
VCONTRACTOR RESPONSIBILITY
p1301
ssV1716A
p1302
(dp1303
g5
(dp1304
sg10
VMATERIAL AND TEST STANDARDS
p1305
ssV1713A
p1306
(dp1307
g5
(dp1308
sg10
VTEST SAFE LOAD
p1309
ssV1712A
p1310
(dp1311
g5
(dp1312
sg10
VALTERNATIVE TEST PROCEDURE
p1313
ssV1706A
p1314
(dp1315
g5
(dp1316
sg10
VSPECIAL INSPECTIONS FOR WIND REQUIREMENTS
p1317
ssV1707A
p1318
(dp1319
g5
(dp1320
sg10
VSPECIAL INSPECTIONS FOR SEISMIC RESISTANCE
p1321
ssV1710A
p1322
(dp1323
g5
(dp1324
sg10
VSTRUCTURAL OBSERVATIONS
p1325
ssV1714A
p1326
(dp1327
g5
(dp1328
sg10
VIN-SITU LOAD TESTS
p1329
ssV1711A
p1330
(dp1331
g5
(dp1332
sg10
g689
sssg10
VSTRUCTURAL TESTS AND SPECIAL INSPECTIONS
p1333
sg45
(dp1334
ssV32
p1335
(dp1336
g3
(dp1337
sg5
(dp1338
V3202
p1339
(dp1340
g5
(dp1341
sg10
VENCROACHMENTS
p1342
ssV3201
p1343
(dp1344
g5
(dp1345
sg10
VGENERAL
p1346
sssg10
VENCROACHMENTS INTO THE PUBLIC RIGHT-OF-WAY
p1347
sg45
(dp1348
ssVG201
p1349
(dp1350
g5
(dp1351
sg10
VDEFINITIONS
p1352
ssV31
p1353
(dp1354
g3
(dp1355
sg5
(dp1356
V3109
p1357
(dp1358
g5
(dp1359
sg10
VSWIMMING POOL ENCLOSURES AND SAFETY DEVICES
p1360
ssV3104
p1361
(dp1362
g5
(dp1363
sg10
VPEDESTRIAN WALKWAYS AND TUNNELS
p1364
ssV3105
p1365
(dp1366
g5
(dp1367
sg10
VAWNINGS AND CANOPIES
p1368
ssV3106
p1369
(dp1370
g5
(dp1371
sg10
VMARQUEES
p1372
ssV3107
p1373
(dp1374
g5
(dp1375
sg10
VSIGNS
p1376
ssV3101
p1377
(dp1378
g5
(dp1379
sg10
VGENERAL
p1380
ssV3102
p1381
(dp1382
g5
(dp1383
sg10
VMEMBRANE STRUCTURES
p1384
ssV3110
p1385
(dp1386
g5
(dp1387
sg10
VAUTOMATIC VEHICULAR GATES
p1388
ssV3103
p1389
(dp1390
g5
(dp1391
sg10
VTEMPORARY STRUCTURES
p1392
sssg10
VSPECIAL CONSTRUCTION
p1393
sg45
(dp1394
ssV30
p1395
(dp1396
g3
(dp1397
sg5
(dp1398
V3005
p1399
(dp1400
g5
(dp1401
sg10
VCONVEYING SYSTEMS
p1402
ssV3004
p1403
(dp1404
g5
(dp1405
sg10
VHOISTWAY VENTING
p1406
ssV3007
p1407
(dp1408
g5
(dp1409
sg10
VFIRE SERVICE ACCESS ELEVATOR
p1410
ssV3006
p1411
(dp1412
g5
(dp1413
sg10
VMACHINE ROOMS
p1414
ssV3001
p1415
(dp1416
g5
(dp1417
sg10
VGENERAL
p1418
ssV3002
p1419
(dp1420
g5
(dp1421
sg10
VHOISTWAY ENCLOSURES
p1422
ssV3009
p1423
(dp1424
g5
(dp1425
sg10
VSPECIAL REQUIREMENTS FOR ELEVATORS IN HOSPITALS
p1426
ssV3008
p1427
(dp1428
g5
(dp1429
sg10
VOCCUPANT EVACUATION ELEVATORS
p1430
sssg10
VELEVATORS AND CONVEYING SYSTEMS
p1431
sg45
(dp1432
ssVG801
p1433
(dp1434
g5
(dp1435
sg10
VOTHER BUILDING WORK
p1436
ssVH114
p1437
(dp1438
g5
(dp1439
sg10
VPORTABLE SIGNS
p1440
ssV34
p1441
(dp1442
g3
(dp1443
sg5
(dp1444
V3416
p1445
(dp1446
g5
(dp1447
sg10
VEXISTING GROUP L OCCUPANCIES [SFM]
p1448
ssV3402
p1449
(dp1450
g5
(dp1451
sg10
VDEFINITIONS
p1452
ssV3420
p1453
(dp1454
g5
(dp1455
sg10
VMETHOD A
p1456
ssV3407
p1457
(dp1458
g5
(dp1459
sg10
VGLASS REPLACEMENT
p1460
ssV3408
p1461
(dp1462
g5
(dp1463
sg10
VCHANGE OF OCCUPANCY
p1464
ssV3423
p1465
(dp1466
g5
(dp1467
sg10
VADDITIONAL REQUIREMENTS FOR PUBLIC 
p1468
ssV3422
p1469
(dp1470
g5
(dp1471
sg10
VPEER REVIEW REQUIREMENTS
p1472
ssV3421
p1473
(dp1474
g5
(dp1475
sg10
VMETHOD B
p1476
ssV3406
p1477
(dp1478
g5
(dp1479
sg10
VFIRE ESCAPES
p1480
ssV3403
p1481
(dp1482
g5
(dp1483
sg10
VADDITIONS
p1484
ssV3401
p1485
(dp1486
g5
(dp1487
sg10
VGENERAL
p1488
ssV3417
p1489
(dp1490
g5
(dp1491
sg10
VEARTHQUAKE EVALUATION AND DESIGN FOR RETROFIT OF EXISTING BUILDINGS
p1492
ssV3414
p1493
(dp1494
g5
(dp1495
sg10
VEXISTING HIGH-RISE BUILDINGS [SFM]
p1496
ssV3415
p1497
(dp1498
g5
(dp1499
sg10
VEXISTING GROUP I OCCUPANCIES [SFM]
p1500
ssV3412
p1501
(dp1502
g5
(dp1503
sg10
VCOMPLIANCE ALTERNATIVES
p1504
ssV3413
p1505
(dp1506
g5
(dp1507
sg10
VEXISTING GROUP R-1 AND GROUP R-2 OCCUPANCIES [SFM]
p1508
ssV3410
p1509
(dp1510
g5
(dp1511
sg10
VMOVED STRUCTURES
p1512
ssV3411
p1513
(dp1514
g5
(dp1515
sg10
VACCESSIBILITY FOR EXISTING BUILDINGS
p1516
ssV3409
p1517
(dp1518
g5
(dp1519
sg10
VHISTORIC BUILDINGS
p1520
ssV3405
p1521
(dp1522
g5
(dp1523
sg10
VREPAIRS
p1524
ssV3418
p1525
(dp1526
g5
(dp1527
sg10
VDEFINITIONS
p1528
sssg10
VA EXISTING STRUCTURES
p1529
sg45
(dp1530
ssVG601
p1531
(dp1532
g5
(dp1533
sg10
VRECREATIONAL VEHICLES
p1534
ssVC102
p1535
(dp1536
g5
(dp1537
sg10
VALLOWABLE HEIGHT AND AREA
p1538
ssVC104
p1539
(dp1540
g5
(dp1541
sg10
VEXITS
p1542
ssVC101
p1543
(dp1544
g5
(dp1545
sg10
VGENERAL
p1546
ssVG301
p1547
(dp1548
g5
(dp1549
sg10
VSUBDIVISIONS
p1550
ssV31E
p1551
(dp1552
g3
(dp1553
sg5
(dp1554
sg10
VRESERVED
p1555
sg45
(dp1556
ssVC103
p1557
(dp1558
g5
(dp1559
sg10
VMIXED OCCUPANCIES
p1560
ss.