(dp0
V29
p1
(dp2
S'figures'
p3
(dp4
sS'sections'
p5
(dp6
V2901
p7
(dp8
g3
(dp9
sg5
(dp10
sS'name'
p11
VGENERAL
p12
sS'tables'
p13
(dp14
sssg11
VPLUMBING SYSTEMS (Not adopted by the State of California)
p15
sg13
(dp16
ssV18A
p17
(dp18
g3
(dp19
sg5
(dp20
V1801A
p21
(dp22
g3
(dp23
sg5
(dp24
sg11
VGENERAL
p25
sg13
(dp26
ssV1810A
p27
(dp28
g3
(dp29
sg5
(dp30
sg11
VDEEP FOUNDATIONS
p31
sg13
(dp32
ssV1808A
p33
(dp34
g3
(dp35
sg5
(dp36
sg11
VFOUNDATIONS
p37
sg13
(dp38
ssV1802A
p39
(dp40
g3
(dp41
sg5
(dp42
sg11
VDEFINITIONS
p43
sg13
(dp44
ssV1807A
p45
(dp46
g3
(dp47
sg5
(dp48
sg11
VFOUNDATION WALLS, RETAINING WALLS AND EMBEDDED POSTS AND POLES
p49
sg13
(dp50
ssV1806A
p51
(dp52
g3
(dp53
sg5
(dp54
sg11
VPRESUMPTIVE LOAD-BEARING VALUES OF SOILS
p55
sg13
(dp56
ssV1804A
p57
(dp58
g3
(dp59
sg5
(dp60
sg11
VEXCAVATION, GRADING AND FILL
p61
sg13
(dp62
ssV1805A
p63
(dp64
g3
(dp65
sg5
(dp66
sg11
VDAMPPROOFING AND WATERPROOFING
p67
sg13
(dp68
ssV1803A
p69
(dp70
g3
(dp71
sg5
(dp72
sg11
VGEOTECHNICAL INVESTIGATIONS
p73
sg13
(dp74
ssV1809A
p75
(dp76
g3
(dp77
sg5
(dp78
sg11
VSHALLOW FOUNDATIONS
p79
sg13
(dp80
sssg11
VSOILS AND FOUNDATIONS
p81
sg13
(dp82
ssV35
p83
(dp84
g3
(dp85
sg5
(dp86
sg11
VREFERENCED STANDARDS
p87
sg13
(dp88
ssV32
p89
(dp90
g3
(dp91
sg5
(dp92
V3202
p93
(dp94
g3
(dp95
sg5
(dp96
sg11
VENCROACHMENTS
p97
sg13
(dp98
ssV3201
p99
(dp100
g3
(dp101
sg5
(dp102
sg11
VGENERAL
p103
sg13
(dp104
sssg11
VENCROACHMENTS INTO THE PUBLIC RIGHT-OF-WAY
p105
sg13
(dp106
ssV24
p107
(dp108
g3
(dp109
sg5
(dp110
V2406
p111
(dp112
g3
(dp113
sg5
(dp114
sg11
VSAFETY GLAZING
p115
sg13
(dp116
ssV2407
p117
(dp118
g3
(dp119
sg5
(dp120
sg11
VGLASS IN HANDRAILS AND GUARDS
p121
sg13
(dp122
ssV2404
p123
(dp124
g3
(dp125
sg5
(dp126
sg11
VWIND, SNOW, SEISMIC AND DEAD LOADS ON GLASS
p127
sg13
(dp128
ssV2405
p129
(dp130
g3
(dp131
sg5
(dp132
sg11
VSLOPED GLAZING AND SKYLIGHTS
p133
sg13
(dp134
ssV2402
p135
(dp136
g3
(dp137
sg5
(dp138
sg11
VDEFINITIONS
p139
sg13
(dp140
ssV2403
p141
(dp142
g3
(dp143
sg5
(dp144
sg11
VGENERAL REQUIREMENTS FOR GLASS
p145
sg13
(dp146
ssV2401
p147
(dp148
g3
(dp149
sg5
(dp150
sg11
VGENERAL
p151
sg13
(dp152
ssV2408
p153
(dp154
g3
(dp155
sg5
(dp156
sg11
VGLAZING IN ATHLETIC FACILITIES
p157
sg13
(dp158
ssV2409
p159
(dp160
g3
(dp161
sg5
(dp162
sg11
VGLASS IN ELEVATOR HOISTWAYS 
p163
sg13
(dp164
sssg11
VGLASS AND GLAZING
p165
sg13
(dp166
ssV25
p167
(dp168
g3
(dp169
sg5
(dp170
V2503
p171
(dp172
g3
(dp173
sg5
(dp174
sg11
VINSPECTION
p175
sg13
(dp176
ssV2502
p177
(dp178
g3
(dp179
sg5
(dp180
sg11
VDEFINITIONS
p181
sg13
(dp182
ssV2501
p183
(dp184
g3
(dp185
sg5
(dp186
sg11
VGENERAL
p187
sg13
(dp188
ssV2509
p189
(dp190
g3
(dp191
sg5
(dp192
sg11
VGYPSUM BOARD IN SHOWERS AND WATER CLOSETS
p193
sg13
(dp194
ssV2508
p195
(dp196
g3
(dp197
sg5
(dp198
sg11
VGYPSUM CONSTRUCTION
p199
sg13
(dp200
ssV2507
p201
(dp202
g3
(dp203
sg5
(dp204
sg11
VLATHING AND PLASTERING
p205
sg13
(dp206
ssV2506
p207
(dp208
g3
(dp209
sg5
(dp210
sg11
VGYPSUM BOARD MATERIALS
p211
sg13
(dp212
ssV2505
p213
(dp214
g3
(dp215
sg5
(dp216
sg11
VSHEAR WALL CONSTRUCTION
p217
sg13
(dp218
ssV2504
p219
(dp220
g3
(dp221
sg5
(dp222
sg11
VVERTICAL AND HORIZONTAL ASSEMBLIES
p223
sg13
(dp224
ssV2510
p225
(dp226
g3
(dp227
sg5
(dp228
sg11
VLATHING AND FURRING FOR CEMENT PLASTER (STUCCO)
p229
sg13
(dp230
ssV2511
p231
(dp232
g3
(dp233
sg5
(dp234
sg11
VINTERIOR PLASTER
p235
sg13
(dp236
ssV2512
p237
(dp238
g3
(dp239
sg5
(dp240
sg11
VEXTERIOR PLASTER
p241
sg13
(dp242
ssV2513
p243
(dp244
g3
(dp245
sg5
(dp246
sg11
VEXPOSED AGGREGATE PLASTER
p247
sg13
(dp248
sssg11
VGYPSUM BOARD AND PLASTER
p249
sg13
(dp250
ssV26
p251
(dp252
g3
(dp253
sg5
(dp254
V2604
p255
(dp256
g3
(dp257
sg5
(dp258
sg11
VINTERIOR FINISH AND TRIM
p259
sg13
(dp260
ssV2605
p261
(dp262
g3
(dp263
sg5
(dp264
sg11
VPLASTIC VENEER
p265
sg13
(dp266
ssV2606
p267
(dp268
g3
(dp269
sg5
(dp270
sg11
VLIGHT-TRANSMITTING PLASTICS
p271
sg13
(dp272
ssV2607
p273
(dp274
g3
(dp275
sg5
(dp276
sg11
VLIGHT-TRANSMITTING PLASTIC WALL PANELS
p277
sg13
(dp278
ssV2613
p279
(dp280
g3
(dp281
sg5
(dp282
sg11
VREFLECTIVE PLASTIC CORE INSULATION
p283
sg13
(dp284
ssV2612
p285
(dp286
g3
(dp287
sg5
(dp288
sg11
VFIBER REINFORCED POLYMER AND FIBERGLASS REINFORCED POLYMER
p289
sg13
(dp290
ssV2602
p291
(dp292
g3
(dp293
sg5
(dp294
sg11
VDEFINITIONS
p295
sg13
(dp296
ssV2610
p297
(dp298
g3
(dp299
sg5
(dp300
sg11
VLIGHT-TRANSMITTING PLASTIC SKYLIGHT GLAZING
p301
sg13
(dp302
ssV2603
p303
(dp304
g3
(dp305
sg5
(dp306
sg11
VFOAM PLASTIC INSULATION
p307
sg13
(dp308
ssV2608
p309
(dp310
g3
(dp311
sg5
(dp312
sg11
VLIGHT-TRANSMITTING PLASTIC GLAZING
p313
sg13
(dp314
ssV2609
p315
(dp316
g3
(dp317
sg5
(dp318
sg11
VLIGHT-TRANSMITTING PLASTIC ROOF PANELS
p319
sg13
(dp320
ssV2611
p321
(dp322
g3
(dp323
sg5
(dp324
sg11
VLIGHT-TRANSMITTING PLASTIC INTERIOR SIGNS
p325
sg13
(dp326
ssV2601
p327
(dp328
g3
(dp329
sg5
(dp330
sg11
VGENERAL
p331
sg13
(dp332
sssg11
VPLASTIC
p333
sg13
(dp334
ssV27
p335
(dp336
g3
(dp337
sg5
(dp338
V2701
p339
(dp340
g3
(dp341
sg5
(dp342
sg11
VGENERAL
p343
sg13
(dp344
sssg11
VELECTRICAL
p345
sg13
(dp346
ssV20
p347
(dp348
g3
(dp349
sg5
(dp350
V2002
p351
(dp352
g3
(dp353
sg5
(dp354
sg11
VMATERIALS
p355
sg13
(dp356
ssV2001
p357
(dp358
g3
(dp359
sg5
(dp360
sg11
VGENERAL
p361
sg13
(dp362
sssg11
VALUMINUM
p363
sg13
(dp364
ssV21
p365
(dp366
g3
(dp367
sg5
(dp368
V2114
p369
(dp370
g3
(dp371
sg5
(dp372
sg11
VADDITIONAL REQUIREMENTS [DSA-SS/CC]
p373
sg13
(dp374
ssV2101
p375
(dp376
g3
(dp377
sg5
(dp378
sg11
VGENERAL
p379
sg13
(dp380
ssV2103
p381
(dp382
g3
(dp383
sg5
(dp384
sg11
VMASONRY CONSTRUCTION MATERIALS
p385
sg13
(dp386
ssV2109
p387
(dp388
g3
(dp389
sg5
(dp390
sg11
VEMPIRICAL DESIGN OF MASONRY
p391
sg13
(dp392
ssV2108
p393
(dp394
g3
(dp395
sg5
(dp396
sg11
VSTRENGTH DESIGN OF MASONRY
p397
sg13
(dp398
ssV2102
p399
(dp400
g3
(dp401
sg5
(dp402
sg11
VDEFINITIONS AND NOTATIONS
p403
sg13
(dp404
ssV2110
p405
(dp406
g3
(dp407
sg5
(dp408
sg11
VGLASS UNIT MASONRY
p409
sg13
(dp410
ssV2111
p411
(dp412
g3
(dp413
sg5
(dp414
sg11
VMASONRY FIREPLACES
p415
sg13
(dp416
ssV2112
p417
(dp418
g3
(dp419
sg5
(dp420
sg11
VMASONRY HEATERS
p421
sg13
(dp422
ssV2113
p423
(dp424
g3
(dp425
sg5
(dp426
sg11
VMASONRY CHIMNEYS
p427
sg13
(dp428
ssV2107
p429
(dp430
g3
(dp431
sg5
(dp432
sg11
VALLOWABLE STRESS DESIGN
p433
sg13
(dp434
ssV2106
p435
(dp436
g3
(dp437
sg5
(dp438
sg11
VSEISMIC DESIGN
p439
sg13
(dp440
ssV2105
p441
(dp442
g3
(dp443
sg5
(dp444
sg11
VQUALITY ASSURANCE
p445
sg13
(dp446
ssV2104
p447
(dp448
g3
(dp449
sg5
(dp450
sg11
VCONSTRUCTION
p451
sg13
(dp452
sssg11
VMASONRY
p453
sg13
(dp454
ssV22
p455
(dp456
g3
(dp457
sg5
(dp458
V2201
p459
(dp460
g3
(dp461
sg5
(dp462
sg11
VGENERAL
p463
sg13
(dp464
ssV2202
p465
(dp466
g3
(dp467
sg5
(dp468
sg11
VDEFINITIONS
p469
sg13
(dp470
ssV2203
p471
(dp472
g3
(dp473
sg5
(dp474
sg11
VIDENTIFICATION AND PROTECTION OF STEEL FOR STRUCTURAL PURPOSES
p475
sg13
(dp476
ssV2204
p477
(dp478
g3
(dp479
sg5
(dp480
sg11
VCONNECTIONS
p481
sg13
(dp482
ssV2205
p483
(dp484
g3
(dp485
sg5
(dp486
sg11
VSTRUCTURAL STEEL
p487
sg13
(dp488
ssV2206
p489
(dp490
g3
(dp491
sg5
(dp492
sg11
VSTEEL JOISTS
p493
sg13
(dp494
ssV2207
p495
(dp496
g3
(dp497
sg5
(dp498
sg11
VSTEEL CABLE STRUCTURES
p499
sg13
(dp500
ssV2208
p501
(dp502
g3
(dp503
sg5
(dp504
sg11
VSTEEL STORAGE RACKS
p505
sg13
(dp506
ssV2209
p507
(dp508
g3
(dp509
sg5
(dp510
sg11
VCOLD-FORMED STEEL
p511
sg13
(dp512
ssV2210
p513
(dp514
g3
(dp515
sg5
(dp516
sg11
VCOLD-FORMED STEELLIGHT-FRAME CONSTRUCTION
p517
sg13
(dp518
sssg11
VSTEEL
p519
sg13
(dp520
ssV23
p521
(dp522
g3
(dp523
sg5
(dp524
V2308
p525
(dp526
g3
(dp527
sg5
(dp528
sg11
VCONVENTIONAL LIGHT-FRAME CONSTRUCTION
p529
sg13
(dp530
ssV2301
p531
(dp532
g3
(dp533
sg5
(dp534
sg11
VGENERAL
p535
sg13
(dp536
ssV2303
p537
(dp538
g3
(dp539
sg5
(dp540
sg11
VMINIMUM STANDARDS AND QUALITY
p541
sg13
(dp542
ssV2302
p543
(dp544
g3
(dp545
sg5
(dp546
sg11
VDEFINITIONS
p547
sg13
(dp548
ssV2305
p549
(dp550
g3
(dp551
sg5
(dp552
sg11
VGENERAL DESIGN REQUIREMENTS FOR LATERAL-FORCE-RESISTING SYSTEMS
p553
sg13
(dp554
ssV2304
p555
(dp556
g3
(dp557
sg5
(dp558
sg11
VGENERAL CONSTRUCTION REQUIREMENTS
p559
sg13
(dp560
ssV2307
p561
(dp562
g3
(dp563
sg5
(dp564
sg11
VLOAD AND RESISTANCE FACTOR DESIGN
p565
sg13
(dp566
ssV2306
p567
(dp568
g3
(dp569
sg5
(dp570
sg11
VALLOWABLE STRESS DESIGN
p571
sg13
(dp572
sssg11
VWOOD
p573
sg13
(dp574
ssV28
p575
(dp576
g3
(dp577
sg5
(dp578
V2801
p579
(dp580
g3
(dp581
sg5
(dp582
sg11
VGENERAL
p583
sg13
(dp584
sssg11
VMECHANICAL SYSTEMS
p585
sg13
(dp586
ssV16A
p587
(dp588
g3
(dp589
sg5
(dp590
V1601A
p591
(dp592
g3
(dp593
sg5
(dp594
sg11
VGENERAL
p595
sg13
(dp596
ssV1611A
p597
(dp598
g3
(dp599
sg5
(dp600
sg11
VRAIN LOADS
p601
sg13
(dp602
ssV1609A
p603
(dp604
g3
(dp605
sg5
(dp606
sg11
VWIND LOADS
p607
sg13
(dp608
ssV1612A
p609
(dp610
g3
(dp611
sg5
(dp612
sg11
VFLOOD LOADS
p613
sg13
(dp614
ssV1608A
p615
(dp616
g3
(dp617
sg5
(dp618
sg11
VSNOW LOADS
p619
sg13
(dp620
ssV1603A
p621
(dp622
g3
(dp623
sg5
(dp624
sg11
VCONSTRUCTION DOCUMENTS
p625
sg13
(dp626
ssV1610A
p627
(dp628
g3
(dp629
sg5
(dp630
sg11
VSOIL LATERAL LOADS
p631
sg13
(dp632
ssV1605A
p633
(dp634
g3
(dp635
sg5
(dp636
sg11
VLOAD COMBINATIONS
p637
sg13
(dp638
ssV1604A
p639
(dp640
g3
(dp641
sg5
(dp642
sg11
VGENERAL DESIGN REQUIREMENTS
p643
sg13
(dp644
sssg11
VSTRUCTURAL DESIGN
p645
sg13
(dp646
ssV22A
p647
(dp648
g3
(dp649
sg5
(dp650
V2208A
p651
(dp652
g3
(dp653
sg5
(dp654
sg11
VSTEEL STORAGE RACKS
p655
sg13
(dp656
ssV2206A
p657
(dp658
g3
(dp659
sg5
(dp660
sg11
VSTEEL JOISTS
p661
sg13
(dp662
ssV2209A
p663
(dp664
g3
(dp665
sg5
(dp666
sg11
VCOLD-FORMED STEEL
p667
sg13
(dp668
ssV2204A
p669
(dp670
g3
(dp671
sg5
(dp672
sg11
VCONNECTIONS
p673
sg13
(dp674
ssV2202A
p675
(dp676
g3
(dp677
sg5
(dp678
sg11
VDEFINITIONS
p679
sg13
(dp680
ssV2205A
p681
(dp682
g3
(dp683
sg5
(dp684
sg11
VSTRUCTURAL STEEL
p685
sg13
(dp686
ssV2212A
p687
(dp688
g3
(dp689
sg5
(dp690
sg11
VTESTING
p691
sg13
(dp692
ssV2207A
p693
(dp694
g3
(dp695
sg5
(dp696
sg11
VSTEEL CABLE STRUCTURES
p697
sg13
(dp698
ssV2210A
p699
(dp700
g3
(dp701
sg5
(dp702
sg11
VCOLD-FORMED STEEL LIGHT-FRAME CONSTRUCTION
p703
sg13
(dp704
ssV2211A
p705
(dp706
g3
(dp707
sg5
(dp708
sg11
V[DSA-SS] LIGHT MODULAR STEEL MOMENT FRAMES FOR PUBLIC ELEMENTARY AND SECONDARY SCHOOLS, AND COMMUNITY COLLEGES
p709
sg13
(dp710
ssV2203A
p711
(dp712
g3
(dp713
sg5
(dp714
sg11
VIDENTIFICATION AND PROTECTION OF STEEL FOR STRUCTURAL PURPOSES
p715
sg13
(dp716
sssg11
VSTEEL
p717
sg13
(dp718
ssS'A'
p719
(dp720
g5
(dp721
VA102
p722
(dp723
g3
(dp724
sg5
(dp725
sg11
VREFERENCED STANDARDS
p726
sg13
(dp727
ssVA101
p728
(dp729
g3
(dp730
sg5
(dp731
sg11
VBUILDING OFFICIAL QUALIFICATIONS
p732
sg13
(dp733
sssg11
VEMPLOYEE QUALIFICATIONS
p734
ssS'C'
p735
(dp736
g5
(dp737
VC104
p738
(dp739
g3
(dp740
sg5
(dp741
sg11
VEXITS
p742
sg13
(dp743
ssVC101
p744
(dp745
g3
(dp746
sg5
(dp747
sg11
VGENERAL
p748
sg13
(dp749
ssVC102
p750
(dp751
g3
(dp752
sg5
(dp753
sg11
VALLOWABLE HEIGHT AND AREA
p754
sg13
(dp755
ssVC103
p756
(dp757
g3
(dp758
sg5
(dp759
sg11
VMIXED OCCUPANCIES
p760
sg13
(dp761
sssg11
VGROUP U-AGRICULTURAL BUILDINGS
p762
ssS'B'
p763
(dp764
g5
(dp765
VB101
p766
(dp767
g3
(dp768
sg5
(dp769
sg11
VGENERAL
p770
sg13
(dp771
sssg11
VBOARD OF APPEALS
p772
ssS'D'
p773
(dp774
g5
(dp775
VD101
p776
(dp777
g3
(dp778
sg5
(dp779
sg11
VGENERAL
p780
sg13
(dp781
ssVD103
p782
(dp783
g3
(dp784
sg5
(dp785
sg11
VCHANGES TO BUILDINGS
p786
sg13
(dp787
ssVD102
p788
(dp789
g3
(dp790
sg5
(dp791
sg11
VBUILDING RESTRICTIONS
p792
sg13
(dp793
ssVD105
p794
(dp795
g3
(dp796
sg5
(dp797
sg11
VEXCEPTIONS TO RESTRICTIONS IN FIRE DISTRICT
p798
sg13
(dp799
ssVD104
p800
(dp801
g3
(dp802
sg5
(dp803
sg11
VBUILDINGS LOCATED PARTIALLY IN THE FIRE DISTRICT
p804
sg13
(dp805
ssVD106
p806
(dp807
g3
(dp808
sg5
(dp809
sg11
VREFERENCED STANDARDS
p810
sg13
(dp811
sssg11
VFIRE DISTRICTS
p812
ssS'G'
p813
(dp814
g5
(dp815
VG101
p816
(dp817
g3
(dp818
sg5
(dp819
sg11
VADMINISTRATION
p820
sg13
(dp821
ssVG102
p822
(dp823
g3
(dp824
sg5
(dp825
sg11
VAPPLICABILITY
p826
sg13
(dp827
ssVG103
p828
(dp829
g3
(dp830
sg5
(dp831
sg11
VPOWERS AND DUTIES
p832
sg13
(dp833
ssVG104
p834
(dp835
g3
(dp836
sg5
(dp837
sg11
VPERMITS
p838
sg13
(dp839
ssVG105
p840
(dp841
g3
(dp842
sg5
(dp843
sg11
VVARIANCES
p844
sg13
(dp845
ssVG901
p846
(dp847
g3
(dp848
sg5
(dp849
sg11
VTEMPORARY STRUCTURES AND TEMPORARY STORAGE
p850
sg13
(dp851
ssVG401
p852
(dp853
g3
(dp854
sg5
(dp855
sg11
VSITE IMPROVEMENT
p856
sg13
(dp857
ssVG801
p858
(dp859
g3
(dp860
sg5
(dp861
sg11
VOTHER BUILDING WORK
p862
sg13
(dp863
ssVG301
p864
(dp865
g3
(dp866
sg5
(dp867
sg11
VSUBDIVISIONS
p868
sg13
(dp869
ssVG701
p870
(dp871
g3
(dp872
sg5
(dp873
sg11
VTANKS
p874
sg13
(dp875
ssVG1001
p876
(dp877
g3
(dp878
sg5
(dp879
sg11
VUTILITY AND MISCELLANEOUS GROUP U
p880
sg13
(dp881
ssVG201
p882
(dp883
g3
(dp884
sg5
(dp885
sg11
VDEFINITIONS
p886
sg13
(dp887
ssVG601
p888
(dp889
g3
(dp890
sg5
(dp891
sg11
VRECREATIONAL VEHICLES
p892
sg13
(dp893
ssVG501
p894
(dp895
g3
(dp896
sg5
(dp897
sg11
VMANUFACTURED HOMES
p898
sg13
(dp899
sssg11
VFLOOD-RESISTANT CONSTRUCTION
p900
ssS'F'
p901
(dp902
g5
(dp903
VF101
p904
(dp905
g3
(dp906
sg5
(dp907
sg11
VGENERAL
p908
sg13
(dp909
sssg11
VRODENTPROOFING
p910
ssS'I'
p911
(dp912
g5
(dp913
VI104
p914
(dp915
g3
(dp916
sg5
(dp917
sg11
VSTRUCTURAL PROVISIONS
p918
sg13
(dp919
ssVI102
p920
(dp921
g3
(dp922
sg5
(dp923
sg11
VDEFINITIONS
p924
sg13
(dp925
ssVI103
p926
(dp927
g3
(dp928
sg5
(dp929
sg11
VEXTERIOR OPENINGS
p930
sg13
(dp931
ssVI101
p932
(dp933
g3
(dp934
sg5
(dp935
sg11
VGENERAL
p936
sg13
(dp937
sssg11
VPATIO COVERS
p938
ssS'H'
p939
(dp940
g5
(dp941
VH112
p942
(dp943
g3
(dp944
sg5
(dp945
sg11
VPROJECTING SIGNS
p946
sg13
(dp947
ssVH113
p948
(dp949
g3
(dp950
sg5
(dp951
sg11
VMARQUEE SIGNS
p952
sg13
(dp953
ssVH110
p954
(dp955
g3
(dp956
sg5
(dp957
sg11
VROOF SIGNS
p958
sg13
(dp959
ssVH111
p960
(dp961
g3
(dp962
sg5
(dp963
sg11
VWALL SIGNS
p964
sg13
(dp965
ssVH114
p966
(dp967
g3
(dp968
sg5
(dp969
sg11
VPORTABLE SIGNS
p970
sg13
(dp971
ssVH115
p972
(dp973
g3
(dp974
sg5
(dp975
sg11
VREFERENCED STANDARDS
p976
sg13
(dp977
ssVH105
p978
(dp979
g3
(dp980
sg5
(dp981
sg11
VDESIGN AND CONSTRUCTION
p982
sg13
(dp983
ssVH104
p984
(dp985
g3
(dp986
sg5
(dp987
sg11
VIDENTIFICATION
p988
sg13
(dp989
ssVH107
p990
(dp991
g3
(dp992
sg5
(dp993
sg11
VCOMBUSTIBLE MATERIALS
p994
sg13
(dp995
ssVH106
p996
(dp997
g3
(dp998
sg5
(dp999
sg11
VELECTRICAL
p1000
sg13
(dp1001
ssVH101
p1002
(dp1003
g3
(dp1004
sg5
(dp1005
sg11
VGENERAL
p1006
sg13
(dp1007
ssVH103
p1008
(dp1009
g3
(dp1010
sg5
(dp1011
sg11
VLOCATION
p1012
sg13
(dp1013
ssVH102
p1014
(dp1015
g3
(dp1016
sg5
(dp1017
sg11
VDEFINITIONS
p1018
sg13
(dp1019
ssVH109
p1020
(dp1021
g3
(dp1022
sg5
(dp1023
sg11
VGROUND SIGNS
p1024
sg13
(dp1025
ssVH108
p1026
(dp1027
g3
(dp1028
sg5
(dp1029
sg11
VANIMATED DEVICES
p1030
sg13
(dp1031
sssg11
VSIGNS
p1032
ssS'K'
p1033
(dp1034
g5
(dp1035
VK104
p1036
(dp1037
g3
(dp1038
sg5
(dp1039
sg11
VEVACUATION LOCATIONS
p1040
sg13
(dp1041
ssVK105
p1042
(dp1043
g3
(dp1044
sg5
(dp1045
sg11
VSPACE WITHIN THE BUILDING
p1046
sg13
(dp1047
ssVK106
p1048
(dp1049
g3
(dp1050
sg5
(dp1051
sg11
VDECKS AND BALCONIES THAT ARE EVACUATION LOCATIONS
p1052
sg13
(dp1053
ssVK107
p1054
(dp1055
g3
(dp1056
sg5
(dp1057
sg11
VROOFTOP EVACUATION LOCATIONS
p1058
sg13
(dp1059
ssVK101
p1060
(dp1061
g3
(dp1062
sg5
(dp1063
sg11
VSCOPE
p1064
sg13
(dp1065
ssVK102
p1066
(dp1067
g3
(dp1068
sg5
(dp1069
sg11
VDEFINITIONS
p1070
sg13
(dp1071
ssVK103
p1072
(dp1073
g3
(dp1074
sg5
(dp1075
sg11
VSTRUCTURAL STABILITY
p1076
sg13
(dp1077
ssVK108
p1078
(dp1079
g3
(dp1080
sg5
(dp1081
sg11
VATTICS THAT ARE EVACUATION LOCATIONS
p1082
sg13
(dp1083
ssVK109
p1084
(dp1085
g3
(dp1086
sg5
(dp1087
sg11
VALTERNATE MEANS OF PROTECTION
p1088
sg13
(dp1089
sssg11
VGROUP R-3 AND GROUP R-3.1 OCCUPANCIES PROTECTED BY THE FACILITIES OF THE CENTRAL VALLEY FLOOD PROTECTION PLAN
p1090
ssS'J'
p1091
(dp1092
g5
(dp1093
VJ103
p1094
(dp1095
g3
(dp1096
sg5
(dp1097
sg11
VPERMITS REQUIRED
p1098
sg13
(dp1099
ssVJ110
p1100
(dp1101
g3
(dp1102
sg5
(dp1103
sg11
VEROSION CONTROL
p1104
sg13
(dp1105
ssVJ101
p1106
(dp1107
g3
(dp1108
sg5
(dp1109
sg11
VGENERAL
p1110
sg13
(dp1111
ssVJ108
p1112
(dp1113
g3
(dp1114
sg5
(dp1115
sg11
VSETBACKS
p1116
sg13
(dp1117
ssVJ107
p1118
(dp1119
g3
(dp1120
sg5
(dp1121
sg11
VFILLS
p1122
sg13
(dp1123
ssVJ106
p1124
(dp1125
g3
(dp1126
sg5
(dp1127
sg11
VEXCAVATIONS.
p1128
sg13
(dp1129
ssVJ105
p1130
(dp1131
g3
(dp1132
sg5
(dp1133
sg11
VINSPECTIONS.
p1134
sg13
(dp1135
ssVJ111
p1136
(dp1137
g3
(dp1138
sg5
(dp1139
sg11
VREFERENCED STANDARDS
p1140
sg13
(dp1141
ssVJ109
p1142
(dp1143
g3
(dp1144
sg5
(dp1145
sg11
VDRAINAGE AND TERRACING
p1146
sg13
(dp1147
ssVJ104
p1148
(dp1149
g3
(dp1150
sg5
(dp1151
sg11
VPERMIT APPLICATION AND SUBMITTALS
p1152
sg13
(dp1153
ssVJ102
p1154
(dp1155
g3
(dp1156
sg5
(dp1157
sg11
VDEFINITIONS
p1158
sg13
(dp1159
sssg11
VGRADING
p1160
ssV17
p1161
(dp1162
g3
(dp1163
sg5
(dp1164
V1713
p1165
(dp1166
g3
(dp1167
sg5
(dp1168
sg11
VTEST SAFE LOAD
p1169
sg13
(dp1170
ssV1701
p1171
(dp1172
g3
(dp1173
sg5
(dp1174
sg11
VGENERAL
p1175
sg13
(dp1176
ssV1702
p1177
(dp1178
g3
(dp1179
sg5
(dp1180
sg11
VDEFINITIONS
p1181
sg13
(dp1182
ssV1703
p1183
(dp1184
g3
(dp1185
sg5
(dp1186
sg11
VAPPROVALS
p1187
sg13
(dp1188
ssV1704
p1189
(dp1190
g3
(dp1191
sg5
(dp1192
sg11
VSPECIAL INSPECTIONS
p1193
sg13
(dp1194
ssV1705
p1195
(dp1196
g3
(dp1197
sg5
(dp1198
sg11
VSTATEMENT OF SPECIAL INSPECTIONS
p1199
sg13
(dp1200
ssV1706
p1201
(dp1202
g3
(dp1203
sg5
(dp1204
sg11
VSPECIAL INSPECTIONS FOR WIND REQUIREMENTS
p1205
sg13
(dp1206
ssV1707
p1207
(dp1208
g3
(dp1209
sg5
(dp1210
sg11
VSPECIAL INSPECTIONS FOR SEISMIC RESISTANCE
p1211
sg13
(dp1212
ssV1708
p1213
(dp1214
g3
(dp1215
sg5
(dp1216
sg11
VSTRUCTURAL TESTING FOR SEISMIC RESISTANCE
p1217
sg13
(dp1218
ssV1709
p1219
(dp1220
g3
(dp1221
sg5
(dp1222
sg11
VCONTRACTOR RESPONSIBILITY
p1223
sg13
(dp1224
ssV1714
p1225
(dp1226
g3
(dp1227
sg5
(dp1228
sg11
VIN-SITU LOAD TESTS
p1229
sg13
(dp1230
ssV1711
p1231
(dp1232
g3
(dp1233
sg5
(dp1234
sg11
VDESIGN STRENGTHS OF MATERIALS
p1235
sg13
(dp1236
ssV1715
p1237
(dp1238
g3
(dp1239
sg5
(dp1240
sg11
VPRECONSTRUCTION LOAD TESTS
p1241
sg13
(dp1242
ssV1710
p1243
(dp1244
g3
(dp1245
sg5
(dp1246
sg11
VSTRUCTURAL OBSERVATIONS
p1247
sg13
(dp1248
ssV1712
p1249
(dp1250
g3
(dp1251
sg5
(dp1252
sg11
VALTERNATIVE TEST PROCEDURE
p1253
sg13
(dp1254
ssV1716
p1255
(dp1256
g3
(dp1257
sg5
(dp1258
sg11
VMATERIAL AND TEST STANDARDS
p1259
sg13
(dp1260
sssg11
VSTRUCTURAL TESTS AND SPECIAL INSPECTIONS
p1261
sg13
(dp1262
ssV16
p1263
(dp1264
g3
(dp1265
sg5
(dp1266
V1609
p1267
(dp1268
g3
(dp1269
sg5
(dp1270
sg11
VWIND LOADS
p1271
sg13
(dp1272
ssV1608
p1273
(dp1274
g3
(dp1275
sg5
(dp1276
sg11
VSNOW LOADS
p1277
sg13
(dp1278
ssV1602
p1279
(dp1280
g3
(dp1281
sg5
(dp1282
sg11
VDEFINITIONS AND NOTATIONS
p1283
sg13
(dp1284
ssV1601
p1285
(dp1286
g3
(dp1287
sg5
(dp1288
sg11
VGENERAL
p1289
sg13
(dp1290
ssV1605
p1291
(dp1292
g3
(dp1293
sg5
(dp1294
sg11
VLOAD COMBINATIONS
p1295
sg13
(dp1296
ssV1614
p1297
(dp1298
g3
(dp1299
sg5
(dp1300
sg11
VSTRUCTURAL INTEGRITY
p1301
sg13
(dp1302
ssV1615
p1303
(dp1304
g3
(dp1305
sg5
(dp1306
sg11
VADDITIONAL REQUIREMENTS [DSA-SS/CC]
p1307
sg13
(dp1308
ssV1612
p1309
(dp1310
g3
(dp1311
sg5
(dp1312
sg11
VFLOOD LOADS
p1313
sg13
(dp1314
ssV1613
p1315
(dp1316
g3
(dp1317
sg5
(dp1318
sg11
VEARTHQUAKE LOADS
p1319
sg13
(dp1320
ssV1610
p1321
(dp1322
g3
(dp1323
sg5
(dp1324
sg11
VSOIL LATERAL LOADS
p1325
sg13
(dp1326
ssV1611
p1327
(dp1328
g3
(dp1329
sg5
(dp1330
sg11
VRAIN LOADS
p1331
sg13
(dp1332
ssV1607
p1333
(dp1334
g3
(dp1335
sg5
(dp1336
sg11
VLIVE LOADS
p1337
sg13
(dp1338
ssV1606
p1339
(dp1340
g3
(dp1341
sg5
(dp1342
sg11
VDEAD LOADS
p1343
sg13
(dp1344
ssV1604
p1345
(dp1346
g3
(dp1347
sg5
(dp1348
sg11
VGENERAL DESIGN REQUIREMENTS
p1349
sg13
(dp1350
ssV1603
p1351
(dp1352
g3
(dp1353
sg5
(dp1354
sg11
VCONSTRUCTION DOCUMENTS
p1355
sg13
(dp1356
sssg11
VSTRUCTURAL DESIGN
p1357
sg13
(dp1358
ssV19
p1359
(dp1360
g3
(dp1361
sg5
(dp1362
V1912
p1363
(dp1364
g3
(dp1365
sg5
(dp1366
sg11
VANCHORAGE TO CONCRETE\u2014 STRENGTH DESIGN
p1367
sg13
(dp1368
ssV1915
p1369
(dp1370
g3
(dp1371
sg5
(dp1372
sg11
VCONCRETE-FILLED PIPE COLUMNS
p1373
sg13
(dp1374
ssV1913
p1375
(dp1376
g3
(dp1377
sg5
(dp1378
sg11
VSHOTCRETE
p1379
sg13
(dp1380
ssV1910
p1381
(dp1382
g3
(dp1383
sg5
(dp1384
sg11
VMINIMUM SLAB PROVISIONS
p1385
sg13
(dp1386
ssV1914
p1387
(dp1388
g3
(dp1389
sg5
(dp1390
sg11
VREINFORCED GYPSUM CONCRETE
p1391
sg13
(dp1392
ssV1911
p1393
(dp1394
g3
(dp1395
sg5
(dp1396
sg11
VANCHORAGE TO CONCRETE\u2014 ALLOWABLE STRESS DESIGN
p1397
sg13
(dp1398
ssV1908
p1399
(dp1400
g3
(dp1401
sg5
(dp1402
sg11
VMODIFICATIONS TO ACI 318
p1403
sg13
(dp1404
ssV1909
p1405
(dp1406
g3
(dp1407
sg5
(dp1408
sg11
VSTRUCTURAL PLAIN CONCRETE
p1409
sg13
(dp1410
ssV1906
p1411
(dp1412
g3
(dp1413
sg5
(dp1414
sg11
VFORMWORK, EMBEDDED PIPES AND CONSTRUCTION JOINTS
p1415
sg13
(dp1416
ssV1907
p1417
(dp1418
g3
(dp1419
sg5
(dp1420
sg11
VDETAILS OF REINFORCEMENT
p1421
sg13
(dp1422
ssV1904
p1423
(dp1424
g3
(dp1425
sg5
(dp1426
sg11
VDURABILITY REQUIREMENTS
p1427
sg13
(dp1428
ssV1905
p1429
(dp1430
g3
(dp1431
sg5
(dp1432
sg11
VCONCRETE QUALITY, MIXING AND PLACING
p1433
sg13
(dp1434
ssV1902
p1435
(dp1436
g3
(dp1437
sg5
(dp1438
sg11
VDEFINITIONS
p1439
sg13
(dp1440
ssV1903
p1441
(dp1442
g3
(dp1443
sg5
(dp1444
sg11
VSPECIFICATIONS FOR TESTS AND MATERIALS
p1445
sg13
(dp1446
ssV1901
p1447
(dp1448
g3
(dp1449
sg5
(dp1450
sg11
VGENERAL
p1451
sg13
(dp1452
sssg11
VCONCRETE
p1453
sg13
(dp1454
ssV18
p1455
(dp1456
g3
(dp1457
sg5
(dp1458
V1807
p1459
(dp1460
g3
(dp1461
sg5
(dp1462
sg11
VFOUNDATION WALLS, RETAINING WALLS AND EMBEDDED POSTS AND POLES
p1463
sg13
(dp1464
ssV1806
p1465
(dp1466
g3
(dp1467
sg5
(dp1468
sg11
VPRESUMPTIVE LOAD-BEARING VALUES OF SOILS
p1469
sg13
(dp1470
ssV1805
p1471
(dp1472
g3
(dp1473
sg5
(dp1474
sg11
VDAMPPROOFING AND WATERPROOFING
p1475
sg13
(dp1476
ssV1804
p1477
(dp1478
g3
(dp1479
sg5
(dp1480
sg11
VEXCAVATION, GRADING AND FILL
p1481
sg13
(dp1482
ssV1803
p1483
(dp1484
g3
(dp1485
sg5
(dp1486
sg11
VGEOTECHNICAL INVESTIGATIONS
p1487
sg13
(dp1488
ssV1802
p1489
(dp1490
g3
(dp1491
sg5
(dp1492
sg11
VDEFINITIONS
p1493
sg13
(dp1494
ssV1801
p1495
(dp1496
g3
(dp1497
sg5
(dp1498
sg11
VGENERAL
p1499
sg13
(dp1500
ssV1809
p1501
(dp1502
g3
(dp1503
sg5
(dp1504
sg11
VSHALLOW FOUNDATIONS
p1505
sg13
(dp1506
ssV1808
p1507
(dp1508
g3
(dp1509
sg5
(dp1510
sg11
VFOUNDATIONS
p1511
sg13
(dp1512
ssV1810
p1513
(dp1514
g3
(dp1515
sg5
(dp1516
sg11
VDEEP FOUNDATIONS
p1517
sg13
(dp1518
sssg11
VSOILS AND FOUNDATIONS
p1519
sg13
(dp1520
ssV31
p1521
(dp1522
g3
(dp1523
sg5
(dp1524
V3109
p1525
(dp1526
g3
(dp1527
sg5
(dp1528
sg11
VSWIMMING POOL ENCLOSURES AND SAFETY DEVICES
p1529
sg13
(dp1530
ssV3104
p1531
(dp1532
g3
(dp1533
sg5
(dp1534
sg11
VPEDESTRIAN WALKWAYS AND TUNNELS
p1535
sg13
(dp1536
ssV3105
p1537
(dp1538
g3
(dp1539
sg5
(dp1540
sg11
VAWNINGS AND CANOPIES
p1541
sg13
(dp1542
ssV3106
p1543
(dp1544
g3
(dp1545
sg5
(dp1546
sg11
VMARQUEES
p1547
sg13
(dp1548
ssV3107
p1549
(dp1550
g3
(dp1551
sg5
(dp1552
sg11
VSIGNS
p1553
sg13
(dp1554
ssV3101
p1555
(dp1556
g3
(dp1557
sg5
(dp1558
sg11
VGENERAL
p1559
sg13
(dp1560
ssV3102
p1561
(dp1562
g3
(dp1563
sg5
(dp1564
sg11
VMEMBRANE STRUCTURES
p1565
sg13
(dp1566
ssV3110
p1567
(dp1568
g3
(dp1569
sg5
(dp1570
sg11
VAUTOMATIC VEHICULAR GATES
p1571
sg13
(dp1572
ssV3103
p1573
(dp1574
g3
(dp1575
sg5
(dp1576
sg11
VTEMPORARY STRUCTURES
p1577
sg13
(dp1578
sssg11
VSPECIAL CONSTRUCTION
p1579
sg13
(dp1580
ssV30
p1581
(dp1582
g3
(dp1583
sg5
(dp1584
V3005
p1585
(dp1586
g3
(dp1587
sg5
(dp1588
sg11
VCONVEYING SYSTEMS
p1589
sg13
(dp1590
ssV3004
p1591
(dp1592
g3
(dp1593
sg5
(dp1594
sg11
VHOISTWAY VENTING
p1595
sg13
(dp1596
ssV3007
p1597
(dp1598
g3
(dp1599
sg5
(dp1600
sg11
VFIRE SERVICE ACCESS ELEVATOR
p1601
sg13
(dp1602
ssV3006
p1603
(dp1604
g3
(dp1605
sg5
(dp1606
sg11
VMACHINE ROOMS
p1607
sg13
(dp1608
ssV3001
p1609
(dp1610
g3
(dp1611
sg5
(dp1612
sg11
VGENERAL
p1613
sg13
(dp1614
ssV3002
p1615
(dp1616
g3
(dp1617
sg5
(dp1618
sg11
VHOISTWAY ENCLOSURES
p1619
sg13
(dp1620
ssV3009
p1621
(dp1622
g3
(dp1623
sg5
(dp1624
sg11
VSPECIAL REQUIREMENTS FOR ELEVATORS IN HOSPITALS
p1625
sg13
(dp1626
ssV3008
p1627
(dp1628
g3
(dp1629
sg5
(dp1630
sg11
VOCCUPANT EVACUATION ELEVATORS
p1631
sg13
(dp1632
sssg11
VELEVATORS AND CONVEYING SYSTEMS
p1633
sg13
(dp1634
ssV17A
p1635
(dp1636
g3
(dp1637
sg5
(dp1638
V1708A
p1639
(dp1640
g3
(dp1641
sg5
(dp1642
sg11
VSTRUCTURAL TESTING FOR SEISMIC RESISTANCE
p1643
sg13
(dp1644
ssV1715A
p1645
(dp1646
g3
(dp1647
sg5
(dp1648
sg11
VPRECONSTRUCTION LOAD TESTS
p1649
sg13
(dp1650
ssV1709A
p1651
(dp1652
g3
(dp1653
sg5
(dp1654
sg11
VCONTRACTOR RESPONSIBILITY
p1655
sg13
(dp1656
ssV1716A
p1657
(dp1658
g3
(dp1659
sg5
(dp1660
sg11
VMATERIAL AND TEST STANDARDS
p1661
sg13
(dp1662
ssV1713A
p1663
(dp1664
g3
(dp1665
sg5
(dp1666
sg11
VTEST SAFE LOAD
p1667
sg13
(dp1668
ssV1712A
p1669
(dp1670
g3
(dp1671
sg5
(dp1672
sg11
VALTERNATIVE TEST PROCEDURE
p1673
sg13
(dp1674
ssV1706A
p1675
(dp1676
g3
(dp1677
sg5
(dp1678
sg11
VSPECIAL INSPECTIONS FOR WIND REQUIREMENTS
p1679
sg13
(dp1680
ssV1707A
p1681
(dp1682
g3
(dp1683
sg5
(dp1684
sg11
VSPECIAL INSPECTIONS FOR SEISMIC RESISTANCE
p1685
sg13
(dp1686
ssV1710A
p1687
(dp1688
g3
(dp1689
sg5
(dp1690
sg11
VSTRUCTURAL OBSERVATIONS
p1691
sg13
(dp1692
ssV1714A
p1693
(dp1694
g3
(dp1695
sg5
(dp1696
sg11
VIN-SITU LOAD TESTS
p1697
sg13
(dp1698
ssV1711A
p1699
(dp1700
g3
(dp1701
sg5
(dp1702
sg11
V
p1703
sg13
(dp1704
sssg11
VSTRUCTURAL TESTS AND SPECIAL INSPECTIONS
p1705
sg13
(dp1706
ssV34
p1707
(dp1708
g3
(dp1709
sg5
(dp1710
V3416
p1711
(dp1712
g3
(dp1713
sg5
(dp1714
sg11
VEXISTING GROUP L OCCUPANCIES [SFM]
p1715
sg13
(dp1716
ssV3402
p1717
(dp1718
g3
(dp1719
sg5
(dp1720
sg11
VDEFINITIONS
p1721
sg13
(dp1722
ssV3420
p1723
(dp1724
g3
(dp1725
sg5
(dp1726
sg11
VMETHOD A
p1727
sg13
(dp1728
ssV3407
p1729
(dp1730
g3
(dp1731
sg5
(dp1732
sg11
VGLASS REPLACEMENT
p1733
sg13
(dp1734
ssV3408
p1735
(dp1736
g3
(dp1737
sg5
(dp1738
sg11
VCHANGE OF OCCUPANCY
p1739
sg13
(dp1740
ssV3423
p1741
(dp1742
g3
(dp1743
sg5
(dp1744
sg11
VADDITIONAL REQUIREMENTS FOR PUBLIC 
p1745
sg13
(dp1746
ssV3422
p1747
(dp1748
g3
(dp1749
sg5
(dp1750
sg11
VPEER REVIEW REQUIREMENTS
p1751
sg13
(dp1752
ssV3421
p1753
(dp1754
g3
(dp1755
sg5
(dp1756
sg11
VMETHOD B
p1757
sg13
(dp1758
ssV3406
p1759
(dp1760
g3
(dp1761
sg5
(dp1762
sg11
VFIRE ESCAPES
p1763
sg13
(dp1764
ssV3403
p1765
(dp1766
g3
(dp1767
sg5
(dp1768
sg11
VADDITIONS
p1769
sg13
(dp1770
ssV3401
p1771
(dp1772
g3
(dp1773
sg5
(dp1774
sg11
VGENERAL
p1775
sg13
(dp1776
ssV3417
p1777
(dp1778
g3
(dp1779
sg5
(dp1780
sg11
VEARTHQUAKE EVALUATION AND DESIGN FOR RETROFIT OF EXISTING BUILDINGS
p1781
sg13
(dp1782
ssV3414
p1783
(dp1784
g3
(dp1785
sg5
(dp1786
sg11
VEXISTING HIGH-RISE BUILDINGS [SFM]
p1787
sg13
(dp1788
ssV3415
p1789
(dp1790
g3
(dp1791
sg5
(dp1792
sg11
VEXISTING GROUP I OCCUPANCIES [SFM]
p1793
sg13
(dp1794
ssV3412
p1795
(dp1796
g3
(dp1797
sg5
(dp1798
sg11
VCOMPLIANCE ALTERNATIVES
p1799
sg13
(dp1800
ssV3413
p1801
(dp1802
g3
(dp1803
sg5
(dp1804
sg11
VEXISTING GROUP R-1 AND GROUP R-2 OCCUPANCIES [SFM]
p1805
sg13
(dp1806
ssV3410
p1807
(dp1808
g3
(dp1809
sg5
(dp1810
sg11
VMOVED STRUCTURES
p1811
sg13
(dp1812
ssV3411
p1813
(dp1814
g3
(dp1815
sg5
(dp1816
sg11
VACCESSIBILITY FOR EXISTING BUILDINGS
p1817
sg13
(dp1818
ssV3409
p1819
(dp1820
g3
(dp1821
sg5
(dp1822
sg11
VHISTORIC BUILDINGS
p1823
sg13
(dp1824
ssV3405
p1825
(dp1826
g3
(dp1827
sg5
(dp1828
sg11
VREPAIRS
p1829
sg13
(dp1830
ssV3418
p1831
(dp1832
g3
(dp1833
sg5
(dp1834
sg11
VDEFINITIONS
p1835
sg13
(dp1836
sssg11
VA EXISTING STRUCTURES
p1837
sg13
(dp1838
ssV21A
p1839
(dp1840
g3
(dp1841
sg5
(dp1842
V2103A
p1843
(dp1844
g3
(dp1845
sg5
(dp1846
sg11
VMASONRY CONSTRUCTION MATERIALS
p1847
sg13
(dp1848
ssV2102A
p1849
(dp1850
g3
(dp1851
sg5
(dp1852
sg11
VDEFINITIONS AND NOTATIONS
p1853
sg13
(dp1854
ssV2114A
p1855
(dp1856
g3
(dp1857
sg5
(dp1858
sg11
VNONBEARING WALLS
p1859
sg13
(dp1860
ssV2101A
p1861
(dp1862
g3
(dp1863
sg5
(dp1864
sg11
VGENERAL
p1865
sg13
(dp1866
ssV2115A
p1867
(dp1868
g3
(dp1869
sg5
(dp1870
sg11
VMASONRY SCREEN WALLS
p1871
sg13
(dp1872
sssg11
VMASONRY
p1873
sg13
(dp1874
ssV31C
p1875
(dp1876
g3
(dp1877
sg5
(dp1878
V3102C
p1879
(dp1880
g3
(dp1881
sg5
(dp1882
sg11
VRADIATION SHIELDING BARRIERS
p1883
sg13
(dp1884
ssV3104C
p1885
(dp1886
g3
(dp1887
sg5
(dp1888
sg11
VMEDICAL THERAPEUTIC X-RAY INSTALLATIONS
p1889
sg13
(dp1890
ssV3101C
p1891
(dp1892
g3
(dp1893
sg5
(dp1894
sg11
VSCOPE
p1895
sg13
(dp1896
ssV3103C
p1897
(dp1898
g3
(dp1899
sg5
(dp1900
sg11
VMEDICAL RADIOGRAPHIC AND PHOTOFLUOROGRAPHIC INSTALLATIONS
p1901
sg13
(dp1902
sssg11
V[DHS] RADIATION
p1903
sg13
(dp1904
ssV31B
p1905
(dp1906
g3
(dp1907
sg5
(dp1908
V3105B
p1909
(dp1910
g3
(dp1911
sg5
(dp1912
sg11
VALTERNATE EQUIPMENT, MATERIALS AND METHODS OF CONSTRUCTION
p1913
sg13
(dp1914
ssV3123B
p1915
(dp1916
g3
(dp1917
sg5
(dp1918
sg11
VGENERAL REQUIRMENTS
p1919
sg13
(dp1920
ssV3136B
p1921
(dp1922
g3
(dp1923
sg5
(dp1924
sg11
VCLEANING SYSTEMS
p1925
sg13
(dp1926
ssV3117B
p1927
(dp1928
g3
(dp1929
sg5
(dp1930
sg11
VHOSE BIBBS
p1931
sg13
(dp1932
ssV3125B
p1933
(dp1934
g3
(dp1935
sg5
(dp1936
sg11
VRECIRCULATION PIPING SYSTEM AND COMPONENTS
p1937
sg13
(dp1938
ssV3107B
p1939
(dp1940
g3
(dp1941
sg5
(dp1942
sg11
VADDITIONAL REQUIREMENTS FOR A TEMPORARY TRAINING POOL
p1943
sg13
(dp1944
ssV3115B
p1945
(dp1946
g3
(dp1947
sg5
(dp1948
sg11
VBATHHOUSE DRESSING, SHOWER AND TOILET FACILITIES
p1949
sg13
(dp1950
ssV3162B
p1951
(dp1952
g3
(dp1953
sg5
(dp1954
sg11
VANTI-ENTRAPMENT DEVICES AND SYSTEMS
p1955
sg13
(dp1956
ssV3122B
p1957
(dp1958
g3
(dp1959
sg5
(dp1960
sg11
VGAS CHLORINATION EQUIPMENT ROOM
p1961
sg13
(dp1962
ssV3103B
p1963
(dp1964
g3
(dp1965
sg5
(dp1966
sg11
VSPECIAL POOL CLASSIFICATIONS
p1967
sg13
(dp1968
ssV3108B
p1969
(dp1970
g3
(dp1971
sg5
(dp1972
sg11
VPOOL GEOMETRY
p1973
sg13
(dp1974
ssV3118B
p1975
(dp1976
g3
(dp1977
sg5
(dp1978
sg11
VENCLOSURE OF POOL AREA
p1979
sg13
(dp1980
ssV3133B
p1981
(dp1982
g3
(dp1983
sg5
(dp1984
sg11
VDISINFECTANT FEEDERS
p1985
sg13
(dp1986
ssV3128B
p1987
(dp1988
g3
(dp1989
sg5
(dp1990
sg11
VFILTERS (ALL TYPES)
p1991
sg13
(dp1992
ssV3131B
p1993
(dp1994
g3
(dp1995
sg5
(dp1996
sg11
VHIGH-RATE SAND FILTERS
p1997
sg13
(dp1998
ssV3124B
p1999
(dp2000
g3
(dp2001
sg5
(dp2002
sg11
VTURNOVER TIME
p2003
sg13
(dp2004
ssV3135B
p2005
(dp2006
g3
(dp2007
sg5
(dp2008
sg11
VSPA POOL SPECIAL REQUIREMENTS
p2009
sg13
(dp2010
ssV3112B
p2011
(dp2012
g3
(dp2013
sg5
(dp2014
sg11
VDIVING BOARDS
p2015
sg13
(dp2016
ssV3121B
p2017
(dp2018
g3
(dp2019
sg5
(dp2020
sg11
VFOUNDATIONS FOR POOL EQUIPMENT
p2021
sg13
(dp2022
ssV3126B
p2023
(dp2024
g3
(dp2025
sg5
(dp2026
sg11
VRECIRCULATION PUMP CAPACITY
p2027
sg13
(dp2028
ssV3116B
p2029
(dp2030
g3
(dp2031
sg5
(dp2032
sg11
VDRINKING FOUNTAINS
p2033
sg13
(dp2034
ssV3104B
p2035
(dp2036
g3
(dp2037
sg5
(dp2038
sg11
VACCESSIBILITY TO THE PHYSICALLY HANDICAPPED PERSON
p2039
sg13
(dp2040
ssV3137B
p2041
(dp2042
g3
(dp2043
sg5
(dp2044
sg11
VWASTE WATER DISPOSAL
p2045
sg13
(dp2046
ssV3110B
p2047
(dp2048
g3
(dp2049
sg5
(dp2050
sg11
VSTEPS, RECESSED STEPS, LADDERS AND RECESSED STAIRS (TREADS)
p2051
sg13
(dp2052
ssV3114B
p2053
(dp2054
g3
(dp2055
sg5
(dp2056
sg11
VPOOL LIGHTING
p2057
sg13
(dp2058
ssV3106B
p2059
(dp2060
g3
(dp2061
sg5
(dp2062
sg11
VPOOL CONSTRUCTION
p2063
sg13
(dp2064
ssV3120B
p2065
(dp2066
g3
(dp2067
sg5
(dp2068
sg11
VINDOOR POOL VENTILATION
p2069
sg13
(dp2070
ssV3102B
p2071
(dp2072
g3
(dp2073
sg5
(dp2074
sg11
VDEFINITIONS
p2075
sg13
(dp2076
ssV3119B
p2077
(dp2078
g3
(dp2079
sg5
(dp2080
sg11
VSIGNS
p2081
sg13
(dp2082
ssV3109B
p2083
(dp2084
g3
(dp2085
sg5
(dp2086
sg11
VPERMANENT MARKINGS
p2087
sg13
(dp2088
ssV3127B
p2089
(dp2090
g3
(dp2091
sg5
(dp2092
sg11
VWATER SUPPLY INLETS
p2093
sg13
(dp2094
ssV3129B
p2095
(dp2096
g3
(dp2097
sg5
(dp2098
sg11
VRAPID SAND PRESSURE FILTERS
p2099
sg13
(dp2100
ssV3130B
p2101
(dp2102
g3
(dp2103
sg5
(dp2104
sg11
VDIATOMACEOUS EARTH FILTERS
p2105
sg13
(dp2106
ssV3134B
p2107
(dp2108
g3
(dp2109
sg5
(dp2110
sg11
VPOOL FITTINGS
p2111
sg13
(dp2112
ssV3111B
p2113
(dp2114
g3
(dp2115
sg5
(dp2116
sg11
VHANDHOLDS
p2117
sg13
(dp2118
ssV3101B
p2119
(dp2120
g3
(dp2121
sg5
(dp2122
sg11
VSCOPE
p2123
sg13
(dp2124
ssV3132B
p2125
(dp2126
g3
(dp2127
sg5
(dp2128
sg11
VCHEMICAL FEEDERS
p2129
sg13
(dp2130
ssV3113B
p2131
(dp2132
g3
(dp2133
sg5
(dp2134
sg11
VPOOL DECKS
p2135
sg13
(dp2136
sssg11
V[DPH] PUBLIC SWIMMING POOLS
p2137
sg13
(dp2138
ssV31A
p2139
(dp2140
g3
(dp2141
sg5
(dp2142
sg11
g1703
sg13
(dp2143
ssV19A
p2144
(dp2145
g3
(dp2146
sg5
(dp2147
V1906A
p2148
(dp2149
g3
(dp2150
sg5
(dp2151
sg11
VFORMWORK, EMBEDDED PIPES AND CONSTRUCTION JOINTS
p2152
sg13
(dp2153
ssV1904A
p2154
(dp2155
g3
(dp2156
sg5
(dp2157
sg11
VDURABILITY REQUIREMENTS
p2158
sg13
(dp2159
ssV1907A
p2160
(dp2161
g3
(dp2162
sg5
(dp2163
sg11
VDETAILS OF REINFORCEMENT
p2164
sg13
(dp2165
ssV1915A
p2166
(dp2167
g3
(dp2168
sg5
(dp2169
sg11
VCONCRETE-FILLED PIPE COLUMNS
p2170
sg13
(dp2171
ssV1917A
p2172
(dp2173
g3
(dp2174
sg5
(dp2175
sg11
VEXISTING CONCRETE STRUCTURES
p2176
sg13
(dp2177
ssV1902A
p2178
(dp2179
g3
(dp2180
sg5
(dp2181
sg11
VDEFINITIONS
p2182
sg13
(dp2183
ssV1914A
p2184
(dp2185
g3
(dp2186
sg5
(dp2187
sg11
VREINFORCED GYPSUM CONCRETE
p2188
sg13
(dp2189
ssV1911A
p2190
(dp2191
g3
(dp2192
sg5
(dp2193
sg11
VANCHORAGE TO CONCRETE\u2014ALLOWABLE STRESS DESIGN
p2194
sg13
(dp2195
ssV1908A
p2196
(dp2197
g3
(dp2198
sg5
(dp2199
sg11
VMODIFICATIONS TO ACI 318
p2200
sg13
(dp2201
ssV1910A
p2202
(dp2203
g3
(dp2204
sg5
(dp2205
sg11
VMINIMUM SLAB PROVISIONS
p2206
sg13
(dp2207
ssV1901A
p2208
(dp2209
g3
(dp2210
sg5
(dp2211
sg11
VGENERAL
p2212
sg13
(dp2213
ssV1912A
p2214
(dp2215
g3
(dp2216
sg5
(dp2217
sg11
VANCHORAGE TO CONCRETE\u2014 STRENGTH DESIGN
p2218
sg13
(dp2219
ssV1905A
p2220
(dp2221
g3
(dp2222
sg5
(dp2223
sg11
VCONCRETE QUALITY, MIXING AND PLACING
p2224
sg13
(dp2225
ssV1903A
p2226
(dp2227
g3
(dp2228
sg5
(dp2229
sg11
VSPECIFICATIONS FOR TESTS AND MATERIALS
p2230
sg13
(dp2231
ssV1909A
p2232
(dp2233
g3
(dp2234
sg5
(dp2235
sg11
VSTRUCTURAL PLAIN CONCRETE 
p2236
sg13
(dp2237
ssV1913A
p2238
(dp2239
g3
(dp2240
sg5
(dp2241
sg11
VSHOTCRETE
p2242
sg13
(dp2243
ssV1916A
p2244
(dp2245
g3
(dp2246
sg5
(dp2247
sg11
g1703
sg13
(dp2248
sssg11
VCONCRETE
p2249
sg13
(dp2250
ssV31F
p2251
(dp2252
g3
(dp2253
sg5
(dp2254
sg11
V[SLC] - MARINE OIL TERMINALS
p2255
sg13
(dp2256
ssV31E
p2257
(dp2258
g3
(dp2259
sg5
(dp2260
sg11
VRESERVED
p2261
sg13
(dp2262
ssV31D
p2263
(dp2264
g3
(dp2265
sg5
(dp2266
V3103D
p2267
(dp2268
g3
(dp2269
sg5
(dp2270
sg11
VBUILDING AND STRUCTURES
p2271
sg13
(dp2272
ssV3101D
p2273
(dp2274
g3
(dp2275
sg5
(dp2276
sg11
VSCOPE
p2277
sg13
(dp2278
ssV3102D
p2279
(dp2280
g3
(dp2281
sg5
(dp2282
sg11
VDEFINITIONS
p2283
sg13
(dp2284
sssg11
V[DPH] FOOD ESTABLISHMENTS
p2285
sg13
(dp2286
ss.