(dp0
V11B-38-RAMP
p1
(dp2
S'content'
p3
Vimages/gov.ca.bsc.2010.02.1_578_01.jpg
p4
sS'name'
p5
VDIMENSIONS
p6
ssV11B-1E-CLEARANCES
p7
(dp8
g3
Vimages/gov.ca.bsc.2010.02.1_521_01.jpg
p9
sg5
VAT WATER CLOSETS
p10
ssV11A-9L-SHOWER
p11
(dp12
g3
Vimages/gov.ca.bsc.2010.02.1_458_01.jpg
p13
sg5
VWITH WATER CLOSET
p14
ssV11A-9D-KNEE
p15
(dp16
g3
Vimages/gov.ca.bsc.2010.02.1_450_01.jpg
p17
sg5
VCLEARANCE
p18
ssV11A-7A-MINIMUM
p19
(dp20
g3
Vimages/gov.ca.bsc.2010.02.1_438_01.jpg
p21
sg5
VDIMENSIONS OF ELEVATOR CARS
p22
ssV11A-9J-OPEN
p23
(dp24
g3
Vimages/gov.ca.bsc.2010.02.1_456_01.jpg
p25
sg5
VSHOWER
p26
ssV11A-8F-LATCH
p27
(dp28
g3
Vimages/gov.ca.bsc.2010.02.1_442_04.jpg
p29
sg5
VSIDE APPROACH-SLIDING DOORS AND FOLDING DOORS
p30
ssV11A-1L-CORRIDOR
p31
(dp32
g3
Vimages/gov.ca.bsc.2010.02.1_420_01.jpg
p33
sg5
VOVER 200 FEET (60 960 mm)
p34
ssV721.6.3(2)
p35
(dp36
g3
Vimages/gov.ca.bsc.2010.02.1_252_02.jpg
p37
sg5
VEFFECTIVE LENGTH FACTORS
p38
ssV11A-8C-LATCH-SIDE
p39
(dp40
g3
Vimages/gov.ca.bsc.2010.02.1_442_01.jpg
p41
sg5
VAPPROACHES-SWINGING DOORS
p42
ssV11A-8D-FRONT
p43
(dp44
g3
Vimages/gov.ca.bsc.2010.02.1_442_02.jpg
p45
sg5
VAPPROACH-SLIDING DOORS AND FOLDING DOORS
p46
ssV721.2.2.3(2)FIRE-RESISTANCE
p47
(dp48
g3
Vimages/gov.ca.bsc.2010.02.1_230_02.jpg
p49
sg5
VRATINGS FOR CONCRETE ROOF ASSEMBLIES
p50
ssV11A-11C-INTERNATIONAL
p51
(dp52
g3
Vimages/gov.ca.bsc.2010.02.1_462_01.jpg
p53
sg5
VTTY SYMBOL
p54
ssV11A-3I-CURB
p55
(dp56
g3
Vimages/gov.ca.bsc.2010.02.1_428_02.jpg
p57
sg5
VDETAIL
p58
ssV721.5.1(4)FIRE
p59
(dp60
g3
Vimages/gov.ca.bsc.2010.02.1_238_01.jpg
p61
sg5
VRESISTANCE OF STRUCTURAL STEEL COLUMNS PROTECTED WITH VARIOUS THICKNESSES OF TYPE X GYPSUM WALLBOARD
p62
ssV11A-3D-CURB
p63
(dp64
g3
Vimages/gov.ca.bsc.2010.02.1_426_01.jpg
p65
sg5
VDETAIL
p66
ssV11B-1B-MULTIPLE-ACCOMMODATION
p67
(dp68
g3
Vimages/gov.ca.bsc.2010.02.1_518_01.jpg
p69
sg5
VTOILET FACILITY
p70
ssV11A-6E-STAIR
p71
(dp72
g3
Vimages/gov.ca.bsc.2010.02.1_437_01.jpg
p73
sg5
VHANDRAILS
p74
ssV11A-8E-SLIDE
p75
(dp76
g3
Vimages/gov.ca.bsc.2010.02.1_442_03.jpg
p77
sg5
VSIDE APPROACH-SLIDING DOORS AND FOLDING DOORS
p78
ssV11A-5A-RAMPS
p79
(dp80
g3
Vimages/gov.ca.bsc.2010.02.1_432_01.jpg
p81
sg5
VAND SIDEWALKS
p82
ssV721.2.1.3.1
p83
(dp84
g3
Vimages/gov.ca.bsc.2010.02.1_227_01.jpg
p85
sg5
VCERAMIC FIBER JOINT PROTECTION
p86
ssV11A-9M-WING
p87
(dp88
g3
Vimages/gov.ca.bsc.2010.02.1_458_02.jpg
p89
sg5
VWALL OR CABINET AT WATER CLOSET
p90
ssV11A-11-FORWARD
p91
(dp92
g3
Vimages/gov.ca.bsc.2010.02.1_417_01.jpg
p93
sg5
VREACH
p94
ssV11A-7D-GRAPH
p95
(dp96
g3
Vimages/gov.ca.bsc.2010.02.1_440_02.jpg
p97
sg5
VOF TIMING EQUATION
p98
ssV11B-2A-SHOWER
p99
(dp100
g3
Vimages/gov.ca.bsc.2010.02.1_522_01.jpg
p101
sg5
VSTALLS (continued)
p102
ssV11A-3F-CURB
p103
(dp104
g3
Vimages/gov.ca.bsc.2010.02.1_427_01.jpg
p105
sg5
VDETAIL
p106
ssV11A-8H-VESTIBULE
p107
(dp108
g3
Vimages/gov.ca.bsc.2010.02.1_444_01.jpg
p109
sg5
V(SERVING OTHER THAN A REQUIRED EXIT STAIRWAY)
p110
ssV721.2.1.2
p111
(dp112
g3
Vimages/gov.ca.bsc.2010.02.1_225_01.jpg
p113
sg5
VFIRE-RESISTANCE RATINGS OF TWO-WYTHE CONCRETE WALLS
p114
ssV11A-1G-MINIMUM
p115
(dp116
g3
Vimages/gov.ca.bsc.2010.02.1_415_01.jpg
p117
sg5
VCLEAR FLOOR SPACE FOR WHEELCHAIRS
p118
ssV705.7
p119
(dp120
g3
Vimages/gov.ca.bsc.2010.02.1_174_02.jpg
p121
sS'3'
p122
(dp123
g3
Vimages/gov.ca.bsc.2010.02.1_176_01.jpg
p124
sg5
VEQUIVALENT OPENING FACTOR
p125
ssg5
VEQUIVALENT OPENING FACTOR
p126
ssV11A-8G-VESTIBULE
p127
(dp128
g3
Vimages/gov.ca.bsc.2010.02.1_443_01.jpg
p129
sg5
V
p130
ssV721.5.1(2)GYPSUM
p131
(dp132
g3
Vimages/gov.ca.bsc.2010.02.1_237_01.jpg
p133
sg5
VWALLBOARD PROTECTED STRUCTURAL STEEL COLUMNS WITH SHEET STEEL COLUMN COVE IRS
p134
ssV721.2.2.2
p135
(dp136
g3
Vimages/gov.ca.bsc.2010.02.1_229_04.jpg
p137
sg5
VFIRE-RESISTANCE RATINGS FOR TWO-COURSE CONCRETE FLOORS
p138
ssV11A-3E-CURB
p139
(dp140
g3
Vimages/gov.ca.bsc.2010.02.1_426_02.jpg
p141
sg5
VDETAIL
p142
ssV11A-1A-INTERNATIONAL
p143
(dp144
g3
Vimages/gov.ca.bsc.2010.02.1_411_01.jpg
p145
sg5
VACCESSIBILITY SYMBOL
p146
ssV11A-1F-MINIMUM
p147
(dp148
g3
Vimages/gov.ca.bsc.2010.02.1_414_03.jpg
p149
sg5
VCLEAR WIDTH FOR TWO WHEELCHAIRS
p150
ssV11A-3A-CURB
p151
(dp152
g3
Vimages/gov.ca.bsc.2010.02.1_423_01.jpg
p153
sg5
VDETAILS
p154
ssV11A-9F-GRAB
p155
(dp156
g3
Vimages/gov.ca.bsc.2010.02.1_452_01.jpg
p157
sg5
VBARS AT BATHTUBS
p158
ssV11A-2B-SINGLE
p159
(dp160
g3
Vimages/gov.ca.bsc.2010.02.1_422_01.jpg
p161
sg5
VAND VAN ACCESSIBLE PARKING STALLS
p162
ssV721.6.3(1)
p163
(dp164
g3
Vimages/gov.ca.bsc.2010.02.1_252_01.jpg
p165
sg5
VLOAD FIGURE
p166
ssV11A-9K-ALTERNATIVE
p167
(dp168
g3
Vimages/gov.ca.bsc.2010.02.1_457_01.jpg
p169
sg5
VROLL-IN
p170
ssV11A-11E-INTERNATIONAL
p171
(dp172
g3
Vimages/gov.ca.bsc.2010.02.1_462_03.jpg
p173
sg5
VSYMBOL OF ACCESS FOR HEARING LOSS
p174
ssV11A-8J-PLATFORM
p175
(dp176
g3
Vimages/gov.ca.bsc.2010.02.1_446_01.jpg
p177
sg5
VSECONDARY EXTERIOR DOOR
p178
ssV11B-1A
p179
(dp180
g3
Vimages/gov.ca.bsc.2010.02.1_517_01.jpg
p181
sg5
g130
ssV11A-3C-CURB
p182
(dp183
g3
Vimages/gov.ca.bsc.2010.02.1_425_01.jpg
p184
sg5
VDETAIL
p185
ssV11A-11B-MOUNTING
p186
(dp187
g3
Vimages/gov.ca.bsc.2010.02.1_461_01.jpg
p188
sg5
VHEIGHTS AND CLEARANCES FOR TELEPHONES
p189
ssV11A-6A-WARNING
p190
(dp191
g3
Vimages/gov.ca.bsc.2010.02.1_433_01.jpg
p192
sg5
VSTRIPING AND HANDRAIL EXTENSIONS
p193
ssV11A-3H-CURB
p194
(dp195
g3
Vimages/gov.ca.bsc.2010.02.1_428_01.jpg
p196
sg5
VDETAIL
p197
ssV11A-11D-VOLUME
p198
(dp199
g3
Vimages/gov.ca.bsc.2010.02.1_462_02.jpg
p200
sg5
VCONTROL TELEPHONES
p201
ssV11A-9I-ROLL-IN
p202
(dp203
g3
Vimages/gov.ca.bsc.2010.02.1_455_01.jpg
p204
sg5
VSHOWER
p205
ssV11A-1H-MINIMUM
p206
(dp207
g3
Vimages/gov.ca.bsc.2010.02.1_416_01.jpg
p208
sg5
VCLEAR FLOOR SPACE FOR WHEELCHAIRS
p209
ssV11A-1K-MINIMUM
p210
(dp211
g3
Vimages/gov.ca.bsc.2010.02.1_419_01.jpg
p212
sg5
VCLEARANCES FOR SEATING AND TABLE
p213
ssV11A-9A-MULTIPLE
p214
(dp215
g3
Vimages/gov.ca.bsc.2010.02.1_447_01.jpg
p216
sg5
VACCOMMODATION TOILET FACILITY
p217
ssV11A-8A-FRONT
p218
(dp219
g3
Vimages/gov.ca.bsc.2010.02.1_441_01.jpg
p220
sg5
VAPPROACHES-SWINGING DOORS
p221
ssV11A-3B-CURB
p222
(dp223
g3
Vimages/gov.ca.bsc.2010.02.1_424_01.jpg
p224
sg5
VDETAIL
p225
ssV11A-1D-MINIMUM
p226
(dp227
g3
Vimages/gov.ca.bsc.2010.02.1_414_01.jpg
p228
sg5
VCLEAR WIDTH FOR TWO WHEELCHAIRS
p229
ssV11A-8I-THRESHOLDS
p230
(dp231
g3
Vimages/gov.ca.bsc.2010.02.1_445_01.jpg
p232
sg5
g130
ssV11
p233
(dp234
g3
Vimages/gov.ca.bsc.2010.02.1_520_01.jpg
p235
sg5
VB-1D-KNEE CLEARANCE
p236
ssV11A-1J-SIDE
p237
(dp238
g3
Vimages/gov.ca.bsc.2010.02.1_418_01.jpg
p239
sg5
VREACH
p240
ssV11A-3J-CURB
p241
(dp242
g3
Vimages/gov.ca.bsc.2010.02.1_429_01.jpg
p243
sg5
VDETAIL
p244
ssV11A-6C-RAMP
p245
(dp246
g3
Vimages/gov.ca.bsc.2010.02.1_435_01.jpg
p247
sg5
VDIMENSIONS
p248
ssV11A-11A-WATER
p249
(dp250
g3
Vimages/gov.ca.bsc.2010.02.1_460_01.jpg
p251
sg5
VFOUNTAINS
p252
ssV11A-9C-GRAB
p253
(dp254
g3
Vimages/gov.ca.bsc.2010.02.1_449_01.jpg
p255
sg5
VBAR SECTION
p256
ssV11A-6B-STAIR
p257
(dp258
g3
Vimages/gov.ca.bsc.2010.02.1_434_01.jpg
p259
sg5
VHANDRAILS
p260
ssV11A-2A-DOUBLE
p261
(dp262
g3
Vimages/gov.ca.bsc.2010.02.1_421_01.jpg
p263
sg5
VPARKING STALLS
p264
ssV11A-7C-HOISTWAY
p265
(dp266
g3
Vimages/gov.ca.bsc.2010.02.1_440_01.jpg
p267
sg5
VAND ELEVATOR ENTRANCES
p268
ssV11B-1C-TYPICAL
p269
(dp270
g3
Vimages/gov.ca.bsc.2010.02.1_519_01.jpg
p271
sg5
VGRAB BAR SECTION
p272
ssV11A-9G
p273
(dp274
g3
Vimages/gov.ca.bsc.2010.02.1_453_01.jpg
p275
sg5
g130
ssV11A-9H-ROLL-IN
p276
(dp277
g3
Vimages/gov.ca.bsc.2010.02.1_454_01.jpg
p278
sg5
VSHOWER
p279
ssV11A-9B
p280
(dp281
g3
Vimages/gov.ca.bsc.2010.02.1_448_01.jpg
p282
sg5
g130
ssV11A-6D-RAMP
p283
(dp284
g3
Vimages/gov.ca.bsc.2010.02.1_436_01.jpg
p285
sg5
VLANDING AND DOORWAY
p286
ssV11A-7B-ELEVATOR
p287
(dp288
g3
Vimages/gov.ca.bsc.2010.02.1_439_01.jpg
p289
sg5
VCONTROL PANEL
p290
ssV721.2.2.3(1)FIRE-RESISTANCE
p291
(dp292
g3
Vimages/gov.ca.bsc.2010.02.1_230_01.jpg
p293
sg5
VRATINGS FOR CONCRETE ROOF ASSEMBLIES
p294
ssV721.5.2
p295
(dp296
g3
Vimages/gov.ca.bsc.2010.02.1_249_01.jpg
p297
sg5
VDETERMINATION OF THE HEATED PERIMETER OF STRUCTURAL STEEL BEAMS AND GIRDERS
p298
ssV721.5.1
p299
(dp300
g3
Vimages/gov.ca.bsc.2010.02.1_236_02.jpg
p301
sg122
(dp302
g3
Vimages/gov.ca.bsc.2010.02.1_237_02.jpg
p303
sg5
V(3)GYPSUM WALLBOARD PROTECTED STRUCTURAL STEEL COLUMNS WITH STEEL STUD/SCREW ATTACHMENT SYSTEM
p304
ssg5
V(1)DETERMINATION OF THE HEATED PERIMETER OF STRUCTURAL STEEL COLUMNS
p305
sS'4'
p306
(dp307
g3
Vimages/gov.ca.bsc.2010.02.1_238_02.jpg
p308
sg5
V(5)WIDE FLANGE STRUCTURAL STEEL COLUMNS WITH SPRAYED FIRE-RESISTANT MATERIALS
p309
sssV11A-3G-CURB
p310
(dp311
g3
Vimages/gov.ca.bsc.2010.02.1_427_02.jpg
p312
sg5
VDETAIL
p313
ssV11C-2
p314
(dp315
g3
Vimages/gov.ca.bsc.2010.02.1_589_01.jpg
p316
sg5
VCARD READERS LOCATED ON FREE-STANDING PEDESTALS
p317
ssV721.2.2.1.2
p318
(dp319
g3
Vimages/gov.ca.bsc.2010.02.1_229_01.jpg
p320
sg5
VDETERMINATION OF SLAB THICKNESS FOR SLOPING SOFFITS
p321
ssV721.2.2.1.3
p322
(dp323
g3
Vimages/gov.ca.bsc.2010.02.1_229_03.jpg
p324
sg5
VSLABS WITH RIBBED OR UNDULATING SOFFITS
p325
ssV11C-1
p326
(dp327
g3
Vimages/gov.ca.bsc.2010.02.1_588_01.jpg
p328
sg5
VCARD READERS MOUNTED IN FUEL DISPENSERS
p329
ssV11A-9E-CLEAR
p330
(dp331
g3
Vimages/gov.ca.bsc.2010.02.1_451_01.jpg
p332
sg5
VFLOOR SPACE AT BATHTUBS
p333
ssV11A-1C-WIDTH
p334
(dp335
g3
Vimages/gov.ca.bsc.2010.02.1_413_01.jpg
p336
sg5
VOF ACCESSIBLE ROUTE
p337
ssV11A-3L-CURB
p338
(dp339
g3
Vimages/gov.ca.bsc.2010.02.1_430_01.jpg
p340
sg5
VSECTIONS
p341
ssV11A-8B-HINGE-SIDE
p342
(dp343
g3
Vimages/gov.ca.bsc.2010.02.1_441_02.jpg
p344
sg5
VAPPROACHES-SWINGING DOORS
p345
ssV11A-3K-CURB
p346
(dp347
g3
Vimages/gov.ca.bsc.2010.02.1_429_02.jpg
p348
sg5
VDETAIL
p349
ssV11A-10A-KITCHEN
p350
(dp351
g3
Vimages/gov.ca.bsc.2010.02.1_459_01.jpg
p352
sg5
VSPECIFICATIONS
p353
ssV11A-1E-MINIMUM
p354
(dp355
g3
Vimages/gov.ca.bsc.2010.02.1_414_02.jpg
p356
sg5
VCLEAR WIDTH FOR SINGLE WHEELCHAIR
p357
ssV11A-8K-RAMP
p358
(dp359
g3
Vimages/gov.ca.bsc.2010.02.1_446_02.jpg
p360
sg5
VAT SECONDARY EXTERIOR DOOR
p361
ssV721.51(7)CONCRETE
p362
(dp363
g3
Vimages/gov.ca.bsc.2010.02.1_239_02.jpg
p364
sg5
VOR CLAY MASONRY PROTECTED STRUCTURAL STEEL COLUMNS
p365
ssV721.5.1(6)CONCRETE
p366
(dp367
g3
Vimages/gov.ca.bsc.2010.02.1_239_01.jpg
p368
sg5
VPROTECTED STRUCTURAL STEEL COLUMNS8 a,b
p369
ssV11A-1B-OVERHANGING
p370
(dp371
g3
Vimages/gov.ca.bsc.2010.02.1_412_01.jpg
p372
sg5
VOBSTRUCTION
p373
ssV11A-2C-DIAGONAL
p374
(dp375
g3
Vimages/gov.ca.bsc.2010.02.1_422_02.jpg
p376
sg5
VPARKING STALLS
p377
ss.