(dp0
V11
p1
(dp2
S'figures'
p3
(dp4
sS'sections'
p5
(dp6
sS'name'
p7
VRESERVED
p8
sS'tables'
p9
(dp10
ssV10
p11
(dp12
g3
(dp13
sg5
(dp14
V1018
p15
(dp16
g3
(dp17
sg5
(dp18
sg7
VCORRIDORS
p19
sg9
(dp20
ssV1019
p21
(dp22
g3
(dp23
sg5
(dp24
sg7
VEGRESS BALCONIES
p25
sg9
(dp26
ssV1016
p27
(dp28
g3
(dp29
sg5
(dp30
sg7
VEXIT ACCESS TRAVEL DISTANCE
p31
sg9
(dp32
ssV1017
p33
(dp34
g3
(dp35
sg5
(dp36
sg7
VAISLES
p37
sg9
(dp38
ssV1010
p39
(dp40
g3
(dp41
sg5
(dp42
sg7
VRAMPS
p43
sg9
(dp44
ssV1011
p45
(dp46
g3
(dp47
sg5
(dp48
sg7
VEXIT SIGNS
p49
sg9
(dp50
ssV1012
p51
(dp52
g3
(dp53
sg5
(dp54
sg7
VHANDRAILS
p55
sg9
(dp56
ssV1013
p57
(dp58
g3
(dp59
sg5
(dp60
sg7
VGUARDS
p61
sg9
(dp62
ssV1025
p63
(dp64
g3
(dp65
sg5
(dp66
sg7
VHORIZONTAL EXITS
p67
sg9
(dp68
ssV1024
p69
(dp70
g3
(dp71
sg5
(dp72
sg7
VLUMINOUS EGRESS PATH MARKINGS
p73
sg9
(dp74
ssV1027
p75
(dp76
g3
(dp77
sg5
(dp78
sg7
VEXIT DISCHARGE
p79
sg9
(dp80
ssV1026
p81
(dp82
g3
(dp83
sg5
(dp84
sg7
VEXTERIOR EXIT RAMPS AND STAIRWAYS
p85
sg9
(dp86
ssV1021
p87
(dp88
g3
(dp89
sg5
(dp90
sg7
VNUMBER OF EXITS AND CONTINUITY
p91
sg9
(dp92
ssV1020
p93
(dp94
g3
(dp95
sg5
(dp96
sg7
VEXITS
p97
sg9
(dp98
ssV1023
p99
(dp100
g3
(dp101
sg5
(dp102
sg7
VEXIT PASSAGEWAYS
p103
sg9
(dp104
ssV1022
p105
(dp106
g3
(dp107
sg5
(dp108
sg7
V
p109
sg9
(dp110
ssV1029
p111
(dp112
g3
(dp113
sg5
(dp114
sg7
VEMERGENCY ESCAPE AND RESCUE
p115
sg9
(dp116
ssV1028
p117
(dp118
g3
(dp119
sg5
(dp120
sg7
VASSEMBLY
p121
sg9
(dp122
ssV1009
p123
(dp124
g3
(dp125
sg5
(dp126
sg7
VSTAIRWAYS
p127
sg9
(dp128
ssV1008
p129
(dp130
g3
(dp131
sg5
(dp132
sg7
VDOORS, GATES AND TURNSTILES
p133
sg9
(dp134
ssV1007
p135
(dp136
g3
(dp137
sg5
(dp138
sg7
VACCESSIBLE MEANS OF EGRESS
p139
sg9
(dp140
ssV1006
p141
(dp142
g3
(dp143
sg5
(dp144
sg7
VMEANS OF EGRESS ILLUMINATION
p145
sg9
(dp146
ssV1005
p147
(dp148
g3
(dp149
sg5
(dp150
sg7
VEGRESS WIDTH
p151
sg9
(dp152
ssV1004
p153
(dp154
g3
(dp155
sg5
(dp156
sg7
VOCCUPANT LOAD
p157
sg9
(dp158
ssV1003
p159
(dp160
g3
(dp161
sg5
(dp162
sg7
VGENERAL MEANS OF EGRESS
p163
sg9
(dp164
ssV1002
p165
(dp166
g3
(dp167
sg5
(dp168
sg7
VDEFINITIONS
p169
sg9
(dp170
ssV1001
p171
(dp172
g3
(dp173
sg5
(dp174
sg7
VADMINISTRATION
p175
sg9
(dp176
sssg7
VMEANS OF EGRESS
p177
sg9
(dp178
ssV13
p179
(dp180
g3
(dp181
sg5
(dp182
sg7
VENERGY EFFICIENCY
p183
sg9
(dp184
ssV12
p185
(dp186
g3
(dp187
sg5
(dp188
V1227
p189
(dp190
g3
(dp191
sg5
(dp192
sg7
V[OSHPD 4] CORRECTIONAL TREATMENT CENTERS
p193
sg9
(dp194
ssV1226
p195
(dp196
g3
(dp197
sg5
(dp198
sg7
V[OSHPD 3] CLINICS
p199
sg9
(dp200
ssV1225
p201
(dp202
g3
(dp203
sg5
(dp204
sg7
V[OSHPD 2] SKILLED NURSING AND INTERMEDIATE-CARE FACILITIES
p205
sg9
(dp206
ssV1224
p207
(dp208
g3
(dp209
sg5
(dp210
sg7
V[OSHPD 1] HOSPITALS
p211
sg9
(dp212
ssV1209
p213
(dp214
g3
(dp215
sg5
(dp216
sg7
VACCESS TO UNOCCUPIED SPACES
p217
sg9
(dp218
ssV1208
p219
(dp220
g3
(dp221
sg5
(dp222
sg7
VINTERIOR SPACE DIMENSIONS
p223
sg9
(dp224
ssV1205
p225
(dp226
g3
(dp227
sg5
(dp228
sg7
VLIGHTING
p229
sg9
(dp230
ssV1204
p231
(dp232
g3
(dp233
sg5
(dp234
sg7
VTEMPERATURE CONTROL
p235
sg9
(dp236
ssV1206
p237
(dp238
g3
(dp239
sg5
(dp240
sg7
VYARDS OR COURTS
p241
sg9
(dp242
ssV1201
p243
(dp244
g3
(dp245
sg5
(dp246
sg7
VGENERAL
p247
sg9
(dp248
ssV1210
p249
(dp250
g3
(dp251
sg5
(dp252
sg7
VSURROUNDING MATERIALS
p253
sg9
(dp254
ssV1203
p255
(dp256
g3
(dp257
sg5
(dp258
sg7
VVENTILATION
p259
sg9
(dp260
ssV1202
p261
(dp262
g3
(dp263
sg5
(dp264
sg7
VDEFINITIONS
p265
sg9
(dp266
ssV1211
p267
(dp268
g3
(dp269
sg5
(dp270
sg7
V[HCD 1 & HCD 2] GARAGE DOOR SPRINGS
p271
sg9
(dp272
ssV1254
p273
(dp274
g3
(dp275
sg5
(dp276
sg7
V[CA] ACUPUNCTURE OFFICES
p277
sg9
(dp278
ssV1252
p279
(dp280
g3
(dp281
sg5
(dp282
sg7
V[CA] BARBER COLLEGES AND SHOPS
p283
sg9
(dp284
ssV1253
p285
(dp286
g3
(dp287
sg5
(dp288
sg7
V[CA] SCHOOLS OF COSMETOLOGY, COSMETOLOGICAL ESTABLISHMENTS AND SATELLITE CLASSROOMS
p289
sg9
(dp290
ssV1250
p291
(dp292
g3
(dp293
sg5
(dp294
sg7
V[CA] PHARMACIES
p295
sg9
(dp296
ssV1251
p297
(dp298
g3
(dp299
sg5
(dp300
sg7
V[CA] VETERINARY FACILITIES
p301
sg9
(dp302
ssV1235
p303
(dp304
g3
(dp305
sg5
(dp306
sg7
V[DPH] SANITARY CONTROL OF SHELLFISH (PLANTS AND OPERATIONS)
p307
sg9
(dp308
ssV1236
p309
(dp310
g3
(dp311
sg5
(dp312
sg7
V[DPH] LABORATORY ANIMAL QUARTERS
p313
sg9
(dp314
ssV1237
p315
(dp316
g3
(dp317
sg5
(dp318
sg7
V[DPH] WILD ANIMAL QUARANTINE FACILITIES
p319
sg9
(dp320
ssV1230
p321
(dp322
g3
(dp323
sg5
(dp324
sg7
V[CSA] MINIMUM STANDARDS FOR JUVENILE FACILITIES
p325
sg9
(dp326
ssV1231
p327
(dp328
g3
(dp329
sg5
(dp330
sg7
V[CSA] LOCAL DETENTION
p331
sg9
(dp332
ssV1241
p333
(dp334
g3
(dp335
sg5
(dp336
sg7
V[AGR] COLLECTION CENTERS AND FACILITIES
p337
sg9
(dp338
ssV1240
p339
(dp340
g3
(dp341
sg5
(dp342
sg7
V[AGR] MEAT AND POULTRY PROCESSING PLANTS
p343
sg9
(dp344
ssV1243
p345
(dp346
g3
(dp347
sg5
(dp348
sg7
V[AGR] HORSEMEAT AND PET FOOD ESTABLISHMENTS
p349
sg9
(dp350
ssV1242
p351
(dp352
g3
(dp353
sg5
(dp354
sg7
V[AGR] RENDERERS
p355
sg9
(dp356
sssg7
VINTERIOR ENVIRONMENT
p357
sg9
(dp358
ssV11A
p359
(dp360
g3
(dp361
sg5
(dp362
V1143A
p363
(dp364
g3
(dp365
sg5
(dp366
sg7
VSIGNAGE
p367
sg9
(dp368
ssV1141A
p369
(dp370
g3
(dp371
sg5
(dp372
sg7
VACCESSIBLE SWIMMING POOLS
p373
sg9
(dp374
ssV1102A
p375
(dp376
g3
(dp377
sg5
(dp378
sg7
VBUILDING ACCESSIBILITY
p379
sg9
(dp380
ssV1139A
p381
(dp382
g3
(dp383
sg5
(dp384
sg7
VACCESSIBLE DRINKING FOUNTAINS
p385
sg9
(dp386
ssV1114A
p387
(dp388
g3
(dp389
sg5
(dp390
sg7
VEXTERIOR RAMPS AND LANDINGS ON ACCESSIBLE ROUTES
p391
sg9
(dp392
ssV1106A
p393
(dp394
g3
(dp395
sg5
(dp396
sg7
VSITE AND BUILDING CHARACTERISTICS
p397
sg9
(dp398
ssV1135A
p399
(dp400
g3
(dp401
sg5
(dp402
sg7
VLAUNDRY ROOMS
p403
sg9
(dp404
ssV1110A
p405
(dp406
g3
(dp407
sg5
(dp408
sg7
VEXTERIOR ROUTES OF TRAVEL
p409
sg9
(dp410
ssV1137A
p411
(dp412
g3
(dp413
sg5
(dp414
sg7
VOTHER FEATURES AND FACILITIES
p415
sg9
(dp416
ssV1116A
p417
(dp418
g3
(dp419
sg5
(dp420
sg7
VHAZARDS ON ACCESSIBLE ROUTES
p421
sg9
(dp422
ssV1125A
p423
(dp424
g3
(dp425
sg5
(dp426
sg7
VHAZARDS ON ACCESSIBLE ROUTES
p427
sg9
(dp428
ssV1133A
p429
(dp430
g3
(dp431
sg5
(dp432
sg7
VKITCHENS
p433
sg9
(dp434
ssV1112A
p435
(dp436
g3
(dp437
sg5
(dp438
sg7
VCURB RAMPS ON ACCESSIBLE ROUTES
p439
sg9
(dp440
ssV1121A
p441
(dp442
g3
(dp443
sg5
(dp444
sg7
VCHANGES IN LEVEL ON ACCESSIBLE ROUTES
p445
sg9
(dp446
ssV1104A
p447
(dp448
g3
(dp449
sg5
(dp450
sg7
VCOVERED MULTIFAMILY DWELLINGS
p451
sg9
(dp452
ssV1123A
p453
(dp454
g3
(dp455
sg5
(dp456
sg7
VINTERIOR STAIRWAYS
p457
sg9
(dp458
ssV1108A
p459
(dp460
g3
(dp461
sg5
(dp462
sg7
VGENERAL REQUIREMENTS FOR ACCESSIBLE PARKING AND EXTERIOR ROUTES OF TRAVEL
p463
sg9
(dp464
ssV1131A
p465
(dp466
g3
(dp467
sg5
(dp468
sg7
VCHANGES IN LEVEL ON ACCESSIBLE ROUTES
p469
sg9
(dp470
ssV1118A
p471
(dp472
g3
(dp473
sg5
(dp474
sg7
VENGRESS AND AREAS OF REFUGE
p475
sg9
(dp476
ssV1150A
p477
(dp478
g3
(dp479
sg5
(dp480
sg7
VSITE IMPRACTICALITY TESTS
p481
sg9
(dp482
ssV1128A
p483
(dp484
g3
(dp485
sg5
(dp486
sg7
VCOVERED DWELLING UNITS
p487
sg9
(dp488
ssV1117A
p489
(dp490
g3
(dp491
sg5
(dp492
sg7
VGENERAL REQUIREMENTS FOR ACCESSIBLE ENTRANCES, EXITS, INTERIOR ROUTES OF TRAVEL AND FACILITY ACCESSIBILITY
p493
sg9
(dp494
ssV1115A
p495
(dp496
g3
(dp497
sg5
(dp498
sg7
VEXTERIOR STAIRWAYS
p499
sg9
(dp500
ssV1140A
p501
(dp502
g3
(dp503
sg5
(dp504
sg7
VACCESSIBLE TELEPHONES
p505
sg9
(dp506
ssV1103A
p507
(dp508
g3
(dp509
sg5
(dp510
sg7
VDESIGN AND CONSTRUCTION
p511
sg9
(dp512
ssV1111A
p513
(dp514
g3
(dp515
sg5
(dp516
sg7
VCHANGES IN LEVEL ON ACCESSIBLE ROUTES
p517
sg9
(dp518
ssV1126A
p519
(dp520
g3
(dp521
sg5
(dp522
sg7
VDOORS
p523
sg9
(dp524
ssV1107A
p525
(dp526
g3
(dp527
sg5
(dp528
sg7
VDEFINITIONS
p529
sg9
(dp530
ssV1124A
p531
(dp532
g3
(dp533
sg5
(dp534
sg7
VELEVATORS AND PLATFORM (WHEELCHAIR) LIFTS
p535
sg9
(dp536
ssV1101A
p537
(dp538
g3
(dp539
sg5
(dp540
sg7
VAPPLICATION
p541
sg9
(dp542
ssV1136A
p543
(dp544
g3
(dp545
sg5
(dp546
sg7
VELECTRICAL RECEPTACLE, SWITCH AND CONTROL HEIGHTS
p547
sg9
(dp548
ssV1120A
p549
(dp550
g3
(dp551
sg5
(dp552
sg7
VINTERIOR ACCESSIBLE ROUTES
p553
sg9
(dp554
ssV1105A
p555
(dp556
g3
(dp557
sg5
(dp558
sg7
VGARAGES, CARPORTS AND PARKING FACILITIES
p559
sg9
(dp560
ssV1132A
p561
(dp562
g3
(dp563
sg5
(dp564
sg7
VDOORS
p565
sg9
(dp566
ssV1134A
p567
(dp568
g3
(dp569
sg5
(dp570
sg7
VBATHING AND TOILET FACILITIES
p571
sg9
(dp572
ssV1113A
p573
(dp574
g3
(dp575
sg5
(dp576
sg7
VWALKS AND SIDEWALKS ON AN ACCESSIBLE ROUTE
p577
sg9
(dp578
ssV1130A
p579
(dp580
g3
(dp581
sg5
(dp582
sg7
VACCESSIBLE ROUTE WITHIN COVERED MULTIFAMILY DWELLING UNITS
p583
sg9
(dp584
ssV1122A
p585
(dp586
g3
(dp587
sg5
(dp588
sg7
VINTERIOR RAMPS AND LANDINGS ON ACCESSIBLE ROUTES
p589
sg9
(dp590
ssV1119A
p591
(dp592
g3
(dp593
sg5
(dp594
sg7
VINTERIOR ROUTES OF TRAVEL
p595
sg9
(dp596
ssV1109A
p597
(dp598
g3
(dp599
sg5
(dp600
sg7
VPARKING FACILITIES
p601
sg9
(dp602
sssg7
VHOUSING ACCESSIBILITY
p603
sg9
(dp604
ssV11C
p605
(dp606
g3
(dp607
sg5
(dp608
V1104C
p609
(dp610
g3
(dp611
sg5
(dp612
sg7
VREQUIRED FEATURES
p613
sg9
(dp614
ssV1103C
p615
(dp616
g3
(dp617
sg5
(dp618
sg7
VNUMBER OF ACCESSIBLE CARD-READING DEVICES REQUIRED
p619
sg9
(dp620
ssV1102C
p621
(dp622
g3
(dp623
sg5
(dp624
sg7
VAPPLICATION
p625
sg9
(dp626
ssV1101C
p627
(dp628
g3
(dp629
sg5
(dp630
sg7
VCARD-READER DEVICES AT FUEL-DISPENSING EQUIPMENT
p631
sg9
(dp632
sssg7
VSTANDARDS FOR CARD READERS AT GASOLINE FUEL-DISPENSING FACILITIES
p633
sg9
(dp634
ssV7A
p635
(dp636
g3
(dp637
sg5
(dp638
sg7
V[SFM] MATERIALS AND CONSTRUCTION METHODS FOR EXTERIOR WILDFIRE EXPOSURE
p639
sg9
(dp640
ssV11B
p641
(dp642
g3
(dp643
sg5
(dp644
V1129B
p645
(dp646
g3
(dp647
sg5
(dp648
sg7
VACCESSIBLE PARKING REQUIRED
p649
sg9
(dp650
ssV1114B
p651
(dp652
g3
(dp653
sg5
(dp654
sg7
VFACILITY ACCESSIBILITY
p655
sg9
(dp656
ssV1102B
p657
(dp658
g3
(dp659
sg5
(dp660
sg7
VDEFINITIONS
p661
sg9
(dp662
ssV1110B
p663
(dp664
g3
(dp665
sg5
(dp666
sg7
VACCESSIBILITY FOR GROUP M OCCUPANCIES
p667
sg9
(dp668
ssV1135B
p669
(dp670
g3
(dp671
sg5
(dp672
sg7
VHISTORIC PRESERVATION-SPECIAL STANDARDS OF ACCESSIBILITY FOR BUILDINGS WITH HISTORICAL SIGNIFICANCE
p673
sg9
(dp674
ssV1106B
p675
(dp676
g3
(dp677
sg5
(dp678
sg7
VACCESSIBILITY FOR GROUP E OCCUPANCIES
p679
sg9
(dp680
ssV1125B
p681
(dp682
g3
(dp683
sg5
(dp684
sg7
VSTORAGE
p685
sg9
(dp686
ssV1116B
p687
(dp688
g3
(dp689
sg5
(dp690
sg7
VELEVATORS AND PLATFORM (WHEELCHAIR) LIFTS
p691
sg9
(dp692
ssV1121B
p693
(dp694
g3
(dp695
sg5
(dp696
sg7
VTRANSPORTATION FACILITIES
p697
sg9
(dp698
ssV1133B
p699
(dp700
g3
(dp701
sg5
(dp702
sg7
VGENERAL ACCESSIBILITY FOR ENTRANCES, EXITS AND PATHS OF TRAVEL
p703
sg9
(dp704
ssV1104B
p705
(dp706
g3
(dp707
sg5
(dp708
sg7
VACCESSIBILITY FOR GROUP A OCCUPANICES
p709
sg9
(dp710
ssV1127B
p711
(dp712
g3
(dp713
sg5
(dp714
sg7
VEXTERIOR ROUTES OF TRAVEL
p715
sg9
(dp716
ssV1108B
p717
(dp718
g3
(dp719
sg5
(dp720
sg7
VACCESSIBILITY FOR GROUP H OCCUPANCIES
p721
sg9
(dp722
ssV1123B
p723
(dp724
g3
(dp725
sg5
(dp726
sg7
VACCESS TO EMPLOYEE AREAS
p727
sg9
(dp728
ssV1131B
p729
(dp730
g3
(dp731
sg5
(dp732
sg7
VPASSENGER DROP-OFF AND LOADING ZONES
p733
sg9
(dp734
ssV1118B
p735
(dp736
g3
(dp737
sg5
(dp738
sg7
VSPACE ALLOWANCE AND REACH RANGES
p739
sg9
(dp740
ssV1128B
p741
(dp742
g3
(dp743
sg5
(dp744
sg7
VPEDESTRIAN GRADE SEPARATIONS (OVERPASSES AND UNDERPASSES)
p745
sg9
(dp746
ssV1117B
p747
(dp748
g3
(dp749
sg5
(dp750
sg7
VOTHER BUILDING COMPONENTS
p751
sg9
(dp752
ssV1103B
p753
(dp754
g3
(dp755
sg5
(dp756
sg7
VBUILDING ACCESSIBILITY
p757
sg9
(dp758
ssV1115B
p759
(dp760
g3
(dp761
sg5
(dp762
sg7
VBATHING AND TOILET FACILITIES (SANITARY FACILITIES)
p763
sg9
(dp764
ssV1107B
p765
(dp766
g3
(dp767
sg5
(dp768
sg7
VFACTORIES AND WAREHOUSES
p769
sg9
(dp770
ssV1126B
p771
(dp772
g3
(dp773
sg5
(dp774
sg7
VVENDING MACHINES AND OTHER EQUIPMENT
p775
sg9
(dp776
ssV1111B
p777
(dp778
g3
(dp779
sg5
(dp780
sg7
VACCESSIBILITY FOR GROUP R OCCUPANCIES
p781
sg9
(dp782
ssV1101B
p783
(dp784
g3
(dp785
sg5
(dp786
sg7
VSCOPE
p787
sg9
(dp788
ssV1124B
p789
(dp790
g3
(dp791
sg5
(dp792
sg7
VGROUND AND FLOOR SURFACES
p793
sg9
(dp794
ssV1132B
p795
(dp796
g3
(dp797
sg5
(dp798
sg7
VOUTDOOR OCCUPANCIES
p799
sg9
(dp800
ssV1105B
p801
(dp802
g3
(dp803
sg5
(dp804
sg7
VACCESSIBILITY FOR GROUP B OCCUPANCIES
p805
sg9
(dp806
ssV1120B
p807
(dp808
g3
(dp809
sg5
(dp810
sg7
VFLOOR AND LEVELS
p811
sg9
(dp812
ssV1134B
p813
(dp814
g3
(dp815
sg5
(dp816
sg7
VACCESSIBILITY FOR EXISTING BUILDINGS
p817
sg9
(dp818
ssV1130B
p819
(dp820
g3
(dp821
sg5
(dp822
sg7
VPARKING STRUCTURES
p823
sg9
(dp824
ssV1122B
p825
(dp826
g3
(dp827
sg5
(dp828
sg7
VFIXED OR BUILT-IN SEATING, TABLES AND COUNTERS
p829
sg9
(dp830
ssV1119B
p831
(dp832
g3
(dp833
sg5
(dp834
sg7
VSPECIAL STANDARDS OF ACCESSIBILITY FOR BUILDINGS WITH HISTORICAL SIGNIFICANCE
p835
sg9
(dp836
ssV1109B
p837
(dp838
g3
(dp839
sg5
(dp840
sg7
VACCESSIBILITY FOR GROUP I OCCUPANCIES
p841
sg9
(dp842
sssg7
VACCESSIBILITY TO PUBLIC BUILDINGS, PUBLIC ACCOMMODATIONS, COMMERCIAL BUILDINGS AND PUBLICLY FUNDED HOUSING
p843
sg9
(dp844
ssV15
p845
(dp846
g3
(dp847
sg5
(dp848
V1502
p849
(dp850
g3
(dp851
sg5
(dp852
sg7
VDEFINITIONS
p853
sg9
(dp854
ssV1503
p855
(dp856
g3
(dp857
sg5
(dp858
sg7
VWEATHER PROTECTION
p859
sg9
(dp860
ssV1501
p861
(dp862
g3
(dp863
sg5
(dp864
sg7
VGENERAL
p865
sg9
(dp866
ssV1507
p867
(dp868
g3
(dp869
sg5
(dp870
sg7
VREQUIREMENTS FOR ROOF COVERINGS
p871
sg9
(dp872
ssV1504
p873
(dp874
g3
(dp875
sg5
(dp876
sg7
VPERFORMANCE REQUIREMENTS
p877
sg9
(dp878
ssV1505
p879
(dp880
g3
(dp881
sg5
(dp882
sg7
VFIRE CLASSIFICATION
p883
sg9
(dp884
ssV1508
p885
(dp886
g3
(dp887
sg5
(dp888
sg7
VROOF INSULATION
p889
sg9
(dp890
ssV1509
p891
(dp892
g3
(dp893
sg5
(dp894
sg7
VROOFTOP STRUCTURES
p895
sg9
(dp896
ssV1511
p897
(dp898
g3
(dp899
sg5
(dp900
sg7
V[DSA-SS & DSA-SS/CC and OSHPD 1, 2 AND 4] SEISMIC ANCHORAGE OF SLATE SHINGLE, CLAY AND CONCRETE TILE ROOF COVERINGS
p901
sg9
(dp902
ssV1510
p903
(dp904
g3
(dp905
sg5
(dp906
sg7
VREROOFING
p907
sg9
(dp908
sssg7
VROOF ASSEMBLIES AND ROOFTOP STRUCTURES
p909
sg9
(dp910
ssV1
p911
(dp912
g3
(dp913
sg5
(dp914
g189
(dp915
g3
(dp916
sg5
(dp917
sg7
g193
sg9
(dp918
ssg195
(dp919
g3
(dp920
sg5
(dp921
sg7
g199
sg9
(dp922
ssg201
(dp923
g3
(dp924
sg5
(dp925
sg7
g205
sg9
(dp926
ssg207
(dp927
g3
(dp928
sg5
(dp929
sg7
g211
sg9
(dp930
ssg213
(dp931
g3
(dp932
sg5
(dp933
sg7
g217
sg9
(dp934
ssg219
(dp935
g3
(dp936
sg5
(dp937
sg7
g223
sg9
(dp938
ssg285
(dp939
g3
(dp940
sg5
(dp941
sg7
g289
sg9
(dp942
ssg225
(dp943
g3
(dp944
sg5
(dp945
sg7
g229
sg9
(dp946
ssg231
(dp947
g3
(dp948
sg5
(dp949
sg7
g235
sg9
(dp950
ssg237
(dp951
g3
(dp952
sg5
(dp953
sg7
g241
sg9
(dp954
ssg243
(dp955
g3
(dp956
sg5
(dp957
sg7
g247
sg9
(dp958
ssg249
(dp959
g3
(dp960
sg5
(dp961
sg7
g253
sg9
(dp962
ssg255
(dp963
g3
(dp964
sg5
(dp965
sg7
g259
sg9
(dp966
ssg261
(dp967
g3
(dp968
sg5
(dp969
sg7
g265
sg9
(dp970
ssg267
(dp971
g3
(dp972
sg5
(dp973
sg7
g271
sg9
(dp974
ssg867
(dp975
g3
(dp976
sg5
(dp977
sg7
g871
sg9
(dp978
ssg27
(dp979
g3
(dp980
sg5
(dp981
sg7
g31
sg9
(dp982
ssV1408
p983
(dp984
g3
(dp985
sg5
(dp986
sg7
VEXTERIOR INSULATION AND FINISH SYSTEMS (EIFS)
p987
sg9
(dp988
ssg57
(dp989
g3
(dp990
sg5
(dp991
sg7
g61
sg9
(dp992
ssg849
(dp993
g3
(dp994
sg5
(dp995
sg7
g853
sg9
(dp996
ssg855
(dp997
g3
(dp998
sg5
(dp999
sg7
g859
sg9
(dp1000
ssg273
(dp1001
g3
(dp1002
sg5
(dp1003
sg7
g277
sg9
(dp1004
ssg873
(dp1005
g3
(dp1006
sg5
(dp1007
sg7
g877
sg9
(dp1008
ssg15
(dp1009
g3
(dp1010
sg5
(dp1011
sg7
g19
sg9
(dp1012
ssg21
(dp1013
g3
(dp1014
sg5
(dp1015
sg7
g25
sg9
(dp1016
ssg291
(dp1017
g3
(dp1018
sg5
(dp1019
sg7
g295
sg9
(dp1020
ssg297
(dp1021
g3
(dp1022
sg5
(dp1023
sg7
g301
sg9
(dp1024
ssV1403
p1025
(dp1026
g3
(dp1027
sg5
(dp1028
sg7
VPERFORMANCE REQUIREMENTS
p1029
sg9
(dp1030
ssg279
(dp1031
g3
(dp1032
sg5
(dp1033
sg7
g283
sg9
(dp1034
ssg885
(dp1035
g3
(dp1036
sg5
(dp1037
sg7
g889
sg9
(dp1038
ssg33
(dp1039
g3
(dp1040
sg5
(dp1041
sg7
g37
sg9
(dp1042
ssV1407
p1043
(dp1044
g3
(dp1045
sg5
(dp1046
sg7
VMETAL COMPOSITE MATERIALS (MCM)
p1047
sg9
(dp1048
ssV1406
p1049
(dp1050
g3
(dp1051
sg5
(dp1052
sg7
VCOMBUSTIBLE MATERIALS ON THE EXTERIOR SIDE OF EXTERIOR WALLS
p1053
sg9
(dp1054
ssV1405
p1055
(dp1056
g3
(dp1057
sg5
(dp1058
sg7
VINSTALLATION OF WALL COVERINGS
p1059
sg9
(dp1060
ssV1404
p1061
(dp1062
g3
(dp1063
sg5
(dp1064
sg7
VMATERIALS
p1065
sg9
(dp1066
ssg303
(dp1067
g3
(dp1068
sg5
(dp1069
sg7
g307
sg9
(dp1070
ssg309
(dp1071
g3
(dp1072
sg5
(dp1073
sg7
g313
sg9
(dp1074
ssg315
(dp1075
g3
(dp1076
sg5
(dp1077
sg7
g319
sg9
(dp1078
ssg321
(dp1079
g3
(dp1080
sg5
(dp1081
sg7
g325
sg9
(dp1082
ssg327
(dp1083
g3
(dp1084
sg5
(dp1085
sg7
g331
sg9
(dp1086
ssg165
(dp1087
g3
(dp1088
sg5
(dp1089
sg7
g169
sg9
(dp1090
ssg879
(dp1091
g3
(dp1092
sg5
(dp1093
sg7
g883
sg9
(dp1094
ssg159
(dp1095
g3
(dp1096
sg5
(dp1097
sg7
g163
sg9
(dp1098
ssg81
(dp1099
g3
(dp1100
sg5
(dp1101
sg7
g85
sg9
(dp1102
ssV1402
p1103
(dp1104
g3
(dp1105
sg5
(dp1106
sg7
VDEFINITIONS
p1107
sg9
(dp1108
ssg861
(dp1109
g3
(dp1110
sg5
(dp1111
sg7
g865
sg9
(dp1112
ssV1401
p1113
(dp1114
g3
(dp1115
sg5
(dp1116
sg7
VGENERAL
p1117
sg9
(dp1118
ssg63
(dp1119
g3
(dp1120
sg5
(dp1121
sg7
g67
sg9
(dp1122
ssg69
(dp1123
g3
(dp1124
sg5
(dp1125
sg7
g73
sg9
(dp1126
ssg75
(dp1127
g3
(dp1128
sg5
(dp1129
sg7
g79
sg9
(dp1130
ssg891
(dp1131
g3
(dp1132
sg5
(dp1133
sg7
g895
sg9
(dp1134
ssg87
(dp1135
g3
(dp1136
sg5
(dp1137
sg7
g91
sg9
(dp1138
ssg93
(dp1139
g3
(dp1140
sg5
(dp1141
sg7
g97
sg9
(dp1142
ssg99
(dp1143
g3
(dp1144
sg5
(dp1145
sg7
g103
sg9
(dp1146
ssg105
(dp1147
g3
(dp1148
sg5
(dp1149
sg7
g109
sg9
(dp1150
ssg39
(dp1151
g3
(dp1152
sg5
(dp1153
sg7
g43
sg9
(dp1154
ssg111
(dp1155
g3
(dp1156
sg5
(dp1157
sg7
g115
sg9
(dp1158
ssg117
(dp1159
g3
(dp1160
sg5
(dp1161
sg7
g121
sg9
(dp1162
ssg45
(dp1163
g3
(dp1164
sg5
(dp1165
sg7
g49
sg9
(dp1166
ssg333
(dp1167
g3
(dp1168
sg5
(dp1169
sg7
g337
sg9
(dp1170
ssg339
(dp1171
g3
(dp1172
sg5
(dp1173
sg7
g343
sg9
(dp1174
ssg345
(dp1175
g3
(dp1176
sg5
(dp1177
sg7
g349
sg9
(dp1178
ssg351
(dp1179
g3
(dp1180
sg5
(dp1181
sg7
g355
sg9
(dp1182
ssg51
(dp1183
g3
(dp1184
sg5
(dp1185
sg7
g55
sg9
(dp1186
ssg123
(dp1187
g3
(dp1188
sg5
(dp1189
sg7
g127
sg9
(dp1190
ssg129
(dp1191
g3
(dp1192
sg5
(dp1193
sg7
g133
sg9
(dp1194
ssg135
(dp1195
g3
(dp1196
sg5
(dp1197
sg7
g139
sg9
(dp1198
ssg141
(dp1199
g3
(dp1200
sg5
(dp1201
sg7
g145
sg9
(dp1202
ssg147
(dp1203
g3
(dp1204
sg5
(dp1205
sg7
g151
sg9
(dp1206
ssg153
(dp1207
g3
(dp1208
sg5
(dp1209
sg7
g157
sg9
(dp1210
ssg897
(dp1211
g3
(dp1212
sg5
(dp1213
sg7
g901
sg9
(dp1214
ssg903
(dp1215
g3
(dp1216
sg5
(dp1217
sg7
g907
sg9
(dp1218
ssg171
(dp1219
g3
(dp1220
sg5
(dp1221
sg7
g175
sg9
(dp1222
sssg7
g109
sg9
(dp1223
ssV3
p1224
(dp1225
g3
(dp1226
sg5
(dp1227
V308
p1228
(dp1229
g3
(dp1230
sg5
(dp1231
sg7
VINSTITUTIONAL GROUP I
p1232
sg9
(dp1233
ssV309
p1234
(dp1235
g3
(dp1236
sg5
(dp1237
sg7
VMERCANTILE GROUP M
p1238
sg9
(dp1239
ssV313
p1240
(dp1241
g3
(dp1242
sg5
(dp1243
sg7
VLABORATORIES GROUP L [SFM]
p1244
sg9
(dp1245
ssV312
p1246
(dp1247
g3
(dp1248
sg5
(dp1249
sg7
VUTILITY AND MISCELLANEOUS GROUP U
p1250
sg9
(dp1251
ssV311
p1252
(dp1253
g3
(dp1254
sg5
(dp1255
sg7
VSTORAGE GROUP S
p1256
sg9
(dp1257
ssV310
p1258
(dp1259
g3
(dp1260
sg5
(dp1261
sg7
VRESIDENTIAL GROUP R
p1262
sg9
(dp1263
ssV304
p1264
(dp1265
g3
(dp1266
sg5
(dp1267
sg7
VBUSINESS GROUP B
p1268
sg9
(dp1269
ssV305
p1270
(dp1271
g3
(dp1272
sg5
(dp1273
sg7
VEDUCATIONAL GROUP E
p1274
sg9
(dp1275
ssV306
p1276
(dp1277
g3
(dp1278
sg5
(dp1279
sg7
VFACTORY GROUP F
p1280
sg9
(dp1281
ssV307
p1282
(dp1283
g3
(dp1284
sg5
(dp1285
sg7
VHIGH-HAZARD GROUP H
p1286
sg9
(dp1287
ssV301
p1288
(dp1289
g3
(dp1290
sg5
(dp1291
sg7
VGENERAL
p1292
sg9
(dp1293
ssV302
p1294
(dp1295
g3
(dp1296
sg5
(dp1297
sg7
VCLASSIFICATION
p1298
sg9
(dp1299
sssg7
VUSE AND OCCUPANCY CLASSIFICATION
p1300
sg9
(dp1301
ssV2
p1302
(dp1303
g3
(dp1304
sg5
(dp1305
V201
p1306
(dp1307
g3
(dp1308
sg5
(dp1309
sg7
VGENERAL
p1310
sg9
(dp1311
ssV202
p1312
(dp1313
g3
(dp1314
sg5
(dp1315
sg7
VDEFINITIONS
p1316
sg9
(dp1317
sssg7
VDEFINITIONS
p1318
sg9
(dp1319
ssV5
p1320
(dp1321
g3
(dp1322
sg5
(dp1323
V508
p1324
(dp1325
g3
(dp1326
sg5
(dp1327
sg7
VMIXED USE AND OCCUPANCY
p1328
sg9
(dp1329
ssV509
p1330
(dp1331
g3
(dp1332
sg5
(dp1333
sg7
VSPECIAL PROVISIONS
p1334
sg9
(dp1335
ssV506
p1336
(dp1337
g3
(dp1338
sg5
(dp1339
sg7
VBUILDING AREA MODIFICATIONS
p1340
sg9
(dp1341
ssV507
p1342
(dp1343
g3
(dp1344
sg5
(dp1345
sg7
VUNLIMITED AREA BUILDINGS
p1346
sg9
(dp1347
ssV504
p1348
(dp1349
g3
(dp1350
sg5
(dp1351
sg7
VBUILDING HEIGHT
p1352
sg9
(dp1353
ssV503
p1354
(dp1355
g3
(dp1356
sg5
(dp1357
sg7
VGENERAL BUILDING HEIGHT AND AREA LIMITATIONS
p1358
sg9
(dp1359
ssV501
p1360
(dp1361
g3
(dp1362
sg5
(dp1363
sg7
VGENERAL
p1364
sg9
(dp1365
sssg7
VGENERAL BUILDING HEIGHTS AND AREAS
p1366
sg9
(dp1367
ssV4
p1368
(dp1369
g3
(dp1370
sg5
(dp1371
V407
p1372
(dp1373
g3
(dp1374
sg5
(dp1375
sg7
VGROUP I-2
p1376
sg9
(dp1377
ssV406
p1378
(dp1379
g3
(dp1380
sg5
(dp1381
sg7
VMOTOR-VEHICLE-RELATED OCCUPANCIES
p1382
sg9
(dp1383
ssV405
p1384
(dp1385
g3
(dp1386
sg5
(dp1387
sg7
VUNDERGROUND BUILDINGS
p1388
sg9
(dp1389
ssV404
p1390
(dp1391
g3
(dp1392
sg5
(dp1393
sg7
VATRIUMS
p1394
sg9
(dp1395
ssV403
p1396
(dp1397
g3
(dp1398
sg5
(dp1399
sg7
VHIGH-RISE BUILDINGS AND GROUP 1-2 OCCUPANCIES HAVING OCCUPIED FLOORS LOCATED MORE THAN 75 FEET ABOVE THE LOWEST LEVEL OF FIRE DEPARTMENT VEHICLE ACCESS
p1400
sg9
(dp1401
ssV402
p1402
(dp1403
g3
(dp1404
sg5
(dp1405
sg7
VCOVERED MALL AND OPEN MALL BUILDINGS
p1406
sg9
(dp1407
ssV401
p1408
(dp1409
g3
(dp1410
sg5
(dp1411
sg7
VSCOPE
p1412
sg9
(dp1413
ssV421
p1414
(dp1415
g3
(dp1416
sg5
(dp1417
sg7
VHYDROGEN CUTOFF ROOMS
p1418
sg9
(dp1419
ssV409
p1420
(dp1421
g3
(dp1422
sg5
(dp1423
sg7
VMOTION PICTURE PROJECTION ROOMS
p1424
sg9
(dp1425
ssV426
p1426
(dp1427
g3
(dp1428
sg5
(dp1429
sg7
VGROUP I-4 [SFM]
p1430
sg9
(dp1431
ssV439
p1432
(dp1433
g3
(dp1434
sg5
(dp1435
sg7
VPUBLIC LIBRARIES [SL AND SFM]
p1436
sg9
(dp1437
ssV443
p1438
(dp1439
g3
(dp1440
sg5
(dp1441
sg7
VGROUP L [SFM]
p1442
sg9
(dp1443
ssV442
p1444
(dp1445
g3
(dp1446
sg5
(dp1447
sg7
VGROUP E [SFM]
p1448
sg9
(dp1449
ssV440
p1450
(dp1451
g3
(dp1452
sg5
(dp1453
sg7
VGROUP C [SFM]
p1454
sg9
(dp1455
ssV445
p1456
(dp1457
g3
(dp1458
sg5
(dp1459
sg7
VLARGE FAMILY DAY-CARE HOMES [SFM]
p1460
sg9
(dp1461
ssV432
p1462
(dp1463
g3
(dp1464
sg5
(dp1465
sg7
VCOMBUSTION ENGINES AND GAS TURBINES [SFM]
p1466
sg9
(dp1467
ssV414
p1468
(dp1469
g3
(dp1470
sg5
(dp1471
sg7
VHAZARDOUS MATERIALS
p1472
sg9
(dp1473
ssV415
p1474
(dp1475
g3
(dp1476
sg5
(dp1477
sg7
VGROUPS H-1, H-2, H-3, H-4 AND H-5
p1478
sg9
(dp1479
ssV416
p1480
(dp1481
g3
(dp1482
sg5
(dp1483
sg7
VAPPLICATION OF FLAMMABLE FINISHES
p1484
sg9
(dp1485
ssV417
p1486
(dp1487
g3
(dp1488
sg5
(dp1489
sg7
VDRYING ROOMS
p1490
sg9
(dp1491
ssV410
p1492
(dp1493
g3
(dp1494
sg5
(dp1495
sg7
VSTAGES AND PLATFORMS
p1496
sg9
(dp1497
ssV411
p1498
(dp1499
g3
(dp1500
sg5
(dp1501
sg7
VSPECIAL AMUSEMENT BUILDINGS
p1502
sg9
(dp1503
ssV412
p1504
(dp1505
g3
(dp1506
sg5
(dp1507
sg7
VAIRCRAFT-RELATED OCCUPANCIES
p1508
sg9
(dp1509
ssV413
p1510
(dp1511
g3
(dp1512
sg5
(dp1513
sg7
VCOMBUSTIBLE STORAGE
p1514
sg9
(dp1515
ssV436
p1516
(dp1517
g3
(dp1518
sg5
(dp1519
sg7
VWINERY CAVES [SFM]
p1520
sg9
(dp1521
ssV434
p1522
(dp1523
g3
(dp1524
sg5
(dp1525
sg7
VEXPLOSIVES [SFM]
p1526
sg9
(dp1527
ssV408
p1528
(dp1529
g3
(dp1530
sg5
(dp1531
sg7
VGROUP I-3
p1532
sg9
(dp1533
ssV418
p1534
(dp1535
g3
(dp1536
sg5
(dp1537
sg7
VORGANIC COATINGS
p1538
sg9
(dp1539
ssV433
p1540
(dp1541
g3
(dp1542
sg5
(dp1543
sg7
VFIXED GUIDEWAY TRANSIT SYSTEMS [SFM]
p1544
sg9
(dp1545
ssV430
p1546
(dp1547
g3
(dp1548
sg5
(dp1549
sg7
VHORSE RACING STABLES [SFM]
p1550
sg9
(dp1551
ssV431
p1552
(dp1553
g3
(dp1554
sg5
(dp1555
sg7
VPET KENNELS [SFM]
p1556
sg9
(dp1557
sssg7
VSPECIAL DETAILED REQUIREMENTS BASED ON USE AND OCCUPANCY
p1558
sg9
(dp1559
ssV7
p1560
(dp1561
g3
(dp1562
sg5
(dp1563
V708
p1564
(dp1565
g3
(dp1566
sg5
(dp1567
sg7
VSHAFT ENCLOSURES
p1568
sg9
(dp1569
ssV709
p1570
(dp1571
g3
(dp1572
sg5
(dp1573
sg7
VFIRE PARTITIONS
p1574
sg9
(dp1575
ssV719
p1576
(dp1577
g3
(dp1578
sg5
(dp1579
sg7
VTHERMAL-AND SOUND-INSULATING MATERIALS
p1580
sg9
(dp1581
ssV718
p1582
(dp1583
g3
(dp1584
sg5
(dp1585
sg7
VFIRE-RESISTANCE REQUIREMENTS FOR PLASTER
p1586
sg9
(dp1587
ssV717
p1588
(dp1589
g3
(dp1590
sg5
(dp1591
sg7
VCONCEALED SPACES
p1592
sg9
(dp1593
ssV716
p1594
(dp1595
g3
(dp1596
sg5
(dp1597
sg7
VDUCTS AND AIR TRANSFER OPENINGS
p1598
sg9
(dp1599
ssV715
p1600
(dp1601
g3
(dp1602
sg5
(dp1603
sg7
VOPENING PROTECTIVES
p1604
sg9
(dp1605
ssV712
p1606
(dp1607
g3
(dp1608
sg5
(dp1609
sg7
VHORIZONTAL ASSEMBLIES
p1610
sg9
(dp1611
ssV703
p1612
(dp1613
g3
(dp1614
sg5
(dp1615
sg7
VFIRE-RESISTANCE RATINGS AND FIRE TESTS
p1616
sg9
(dp1617
ssV704
p1618
(dp1619
g3
(dp1620
sg5
(dp1621
sg7
VA IGNITION-RESISTANT CONSTRUCTION
p1622
sg9
(dp1623
ssV720
p1624
(dp1625
g3
(dp1626
sg5
(dp1627
sg7
VPRESCRIPTIVE FIRE RESISTANCE
p1628
sg9
(dp1629
ssV721
p1630
(dp1631
g3
(dp1632
sg5
(dp1633
sg7
VCALCULATED FIRE RESISTANCE
p1634
sg9
(dp1635
sssg7
g109
sg9
(dp1636
ssV6
p1637
(dp1638
g3
(dp1639
sg5
(dp1640
V601
p1641
(dp1642
g3
(dp1643
sg5
(dp1644
sg7
VGENERAL
p1645
sg9
(dp1646
ssV603
p1647
(dp1648
g3
(dp1649
sg5
(dp1650
sg7
VCOMBUSTIBLE MATERIAL IN TYPE I AND II CONSTRUCTION
p1651
sg9
(dp1652
ssV602
p1653
(dp1654
g3
(dp1655
sg5
(dp1656
sg7
VCONSTRUCTION CLASSIFICATION
p1657
sg9
(dp1658
sssg7
VTYPES OF CONSTRUCTION
p1659
sg9
(dp1660
ssV9
p1661
(dp1662
g3
(dp1663
sg5
(dp1664
V902
p1665
(dp1666
g3
(dp1667
sg5
(dp1668
sg7
VDEFINITIONS
p1669
sg9
(dp1670
ssV903
p1671
(dp1672
g3
(dp1673
sg5
(dp1674
sg7
VAUTOMATIC SPRINKLER SYSTEMS
p1675
sg9
(dp1676
ssV901
p1677
(dp1678
g3
(dp1679
sg5
(dp1680
sg7
VGENERAL
p1681
sg9
(dp1682
ssV906
p1683
(dp1684
g3
(dp1685
sg5
(dp1686
sg7
VPORTABLE FIRE EXTINGUISHERS
p1687
sg9
(dp1688
ssV904
p1689
(dp1690
g3
(dp1691
sg5
(dp1692
sg7
VALTERNATIVE AUTOMATIC FIRE-EXTINGUISHING SYSTEMS
p1693
sg9
(dp1694
ssV905
p1695
(dp1696
g3
(dp1697
sg5
(dp1698
sg7
VSTANDPIPE SYSTEMS
p1699
sg9
(dp1700
ssV908
p1701
(dp1702
g3
(dp1703
sg5
(dp1704
sg7
VEMERGENCY ALARM SYSTEMS
p1705
sg9
(dp1706
ssV909
p1707
(dp1708
g3
(dp1709
sg5
(dp1710
sg7
VSMOKE CONTROL SYSTEMS
p1711
sg9
(dp1712
ssV915
p1713
(dp1714
g3
(dp1715
sg5
(dp1716
sg7
VEMERGENCY RESPONDER RADIO COVERAGE
p1717
sg9
(dp1718
ssV914
p1719
(dp1720
g3
(dp1721
sg5
(dp1722
sg7
VEMERGENCY RESPONDER SAFETY FEATURES
p1723
sg9
(dp1724
ssV911
p1725
(dp1726
g3
(dp1727
sg5
(dp1728
sg7
VFIRE COMMAND CENTER
p1729
sg9
(dp1730
ssV910
p1731
(dp1732
g3
(dp1733
sg5
(dp1734
sg7
VSMOKE AND HEAT VENTS
p1735
sg9
(dp1736
ssV913
p1737
(dp1738
g3
(dp1739
sg5
(dp1740
sg7
VFIRE PUMPS
p1741
sg9
(dp1742
ssV912
p1743
(dp1744
g3
(dp1745
sg5
(dp1746
sg7
VFIRE DEPARTMENT CONNECTIONS
p1747
sg9
(dp1748
sssg7
VFIRE PROTECTION SYSTEMS
p1749
sg9
(dp1750
ssV8
p1751
(dp1752
g3
(dp1753
sg5
(dp1754
V808
p1755
(dp1756
g3
(dp1757
sg5
(dp1758
sg7
VACOUSTICAL CEILING SYSTEMS
p1759
sg9
(dp1760
ssV803
p1761
(dp1762
g3
(dp1763
sg5
(dp1764
sg7
VWALL AND CEILING FINISHES
p1765
sg9
(dp1766
ssV802
p1767
(dp1768
g3
(dp1769
sg5
(dp1770
sg7
VDEFINITIONS
p1771
sg9
(dp1772
ssV801
p1773
(dp1774
g3
(dp1775
sg5
(dp1776
sg7
VGENERAL
p1777
sg9
(dp1778
ssV807
p1779
(dp1780
g3
(dp1781
sg5
(dp1782
sg7
VINSULATION
p1783
sg9
(dp1784
ssV805
p1785
(dp1786
g3
(dp1787
sg5
(dp1788
sg7
VCOMBUSTIBLE MATERIALS IN TYPES I AND II CONSTRUCTION
p1789
sg9
(dp1790
ssV804
p1791
(dp1792
g3
(dp1793
sg5
(dp1794
sg7
VINTERIOR FLOOR FINISH
p1795
sg9
(dp1796
sssg7
VINTERIOR FINISHES
p1797
sg9
(dp1798
ssV14
p1799
(dp1800
g3
(dp1801
sg5
(dp1802
g983
(dp1803
g3
(dp1804
sg5
(dp1805
sg7
g987
sg9
(dp1806
ssg1025
(dp1807
g3
(dp1808
sg5
(dp1809
sg7
g1029
sg9
(dp1810
ssg1103
(dp1811
g3
(dp1812
sg5
(dp1813
sg7
g1107
sg9
(dp1814
ssg1113
(dp1815
g3
(dp1816
sg5
(dp1817
sg7
g1117
sg9
(dp1818
ssg1043
(dp1819
g3
(dp1820
sg5
(dp1821
sg7
g1047
sg9
(dp1822
ssg1049
(dp1823
g3
(dp1824
sg5
(dp1825
sg7
g1053
sg9
(dp1826
ssg1055
(dp1827
g3
(dp1828
sg5
(dp1829
sg7
g1059
sg9
(dp1830
ssg1061
(dp1831
g3
(dp1832
sg5
(dp1833
sg7
g1065
sg9
(dp1834
sssg7
VEXTERIOR WALLS
p1835
sg9
(dp1836
ss.